
Symbol table '.symtab' contains 2692 entries:
   Num:    Value          Size Type    Bind   Vis      Ndx Name
     0: 0000000000000000     0 NOTYPE  LOCAL  DEFAULT  UND 
     1: 0000000000000000     0 FILE    LOCAL  DEFAULT  ABS 035h0zshxwf9dug51o30mnwix
     2: ffff800000001000   197 FUNC    LOCAL  HIDDEN     2 _RINvMs0_NtNtCs19MhURV36j2_4emkk5utils4listINtB6_4ListNtNtBa_14multithreading11GsiOverrideE12for_each_mutNCNvMs_NtNtBa_4arch4apicNtB1L_4Apic12register_gsi0EBa_
     3: ffff8000000010d0   192 FUNC    LOCAL  HIDDEN     2 _RINvMs0_NtNtCs19MhURV36j2_4emkk5utils4listINtB6_4ListNtNtBa_14multithreading11GsiOverrideE8for_eachNCNvMs_NtNtBa_4arch4apicNtB1G_4Apic22write_and_register_gsi0EBa_
     4: ffff800000001190   192 FUNC    LOCAL  HIDDEN     2 _RINvMs0_NtNtCs19MhURV36j2_4emkk5utils4listINtB6_4ListNtNtBa_14multithreading23MultithreadingLocalApicE8for_eachNCNvMs3_BR_NtBR_14Multithreading14activate_cores0EBa_
     5: ffff800000001250   192 FUNC    LOCAL  HIDDEN     2 _RINvMs0_NtNtCs19MhURV36j2_4emkk5utils4listINtB6_4ListNtNtBa_14multithreading23MultithreadingLocalApicE8for_eachNCNvMs3_BR_NtBR_14Multithreading3new0EBa_
     6: ffff800000001310   197 FUNC    LOCAL  HIDDEN     2 _RINvMs0_NtNtCs19MhURV36j2_4emkk5utils4listINtB6_4ListNtNtBa_14multithreading6IoApicE8for_eachNCNvMs_NtNtBa_4arch4apicNtB1A_4Apic3new0EBa_
     7: ffff8000000013e0   192 FUNC    LOCAL  HIDDEN     2 _RINvMs0_NtNtCs19MhURV36j2_4emkk5utils4listINtB6_4ListNtNtBa_14multithreading6IoApicE8for_eachNCNvMs_NtNtBa_4arch4apicNtB1A_4Apic9write_gsi0EBa_
     8: ffff8000000014a0    93 FUNC    LOCAL  HIDDEN     2 _RNvMs0_NtNtCs19MhURV36j2_4emkk5utils4listINtB5_4ListNtNtB9_14multithreading11GsiOverrideE3newB9_
     9: ffff800000001500    93 FUNC    LOCAL  HIDDEN     2 _RNvMs0_NtNtCs19MhURV36j2_4emkk5utils4listINtB5_4ListNtNtB9_14multithreading23MultithreadingLocalApicE3newB9_
    10: ffff800000001560    93 FUNC    LOCAL  HIDDEN     2 _RNvMs0_NtNtCs19MhURV36j2_4emkk5utils4listINtB5_4ListNtNtB9_14multithreading6IoApicE3newB9_
    11: ffff8000000015c0   145 FUNC    LOCAL  HIDDEN     2 _RNvMs0_NtNtCs19MhURV36j2_4emkk5utils4listINtB5_4ListNtNtB9_14multithreading6IoApicE9ref_constB9_
    12: ffff800000001660    93 FUNC    LOCAL  HIDDEN     2 _RNvMs0_NtNtCs19MhURV36j2_4emkk5utils4listINtB5_4ListyE3newB9_
    13: ffff8000000016c0    10 FUNC    LOCAL  HIDDEN     2 _RNvMs0_NtNtCs19MhURV36j2_4emkk5utils4listINtB5_4ListyE4sizeB9_
    14: ffff8000000016d0   145 FUNC    LOCAL  HIDDEN     2 _RNvMs0_NtNtCs19MhURV36j2_4emkk5utils4listINtB5_4ListyE9ref_constB9_
    15: ffff800000001770    91 FUNC    LOCAL  HIDDEN     2 _RNvXs_NtNtCs19MhURV36j2_4emkk5utils4listINtB4_4ListNtNtB8_14multithreading11GsiOverrideENtNtCs3i3vE8eoeEl_4core7default7Default7defaultB8_
    16: ffff8000000017d0    91 FUNC    LOCAL  HIDDEN     2 _RNvXs_NtNtCs19MhURV36j2_4emkk5utils4listINtB4_4ListNtNtB8_14multithreading23MultithreadingLocalApicENtNtCs3i3vE8eoeEl_4core7default7Default7defaultB8_
    17: ffff800000001830    91 FUNC    LOCAL  HIDDEN     2 _RNvXs_NtNtCs19MhURV36j2_4emkk5utils4listINtB4_4ListNtNtB8_14multithreading6IoApicENtNtCs3i3vE8eoeEl_4core7default7Default7defaultB8_
    18: ffff800000001890    91 FUNC    LOCAL  HIDDEN     2 _RNvXs_NtNtCs19MhURV36j2_4emkk5utils4listINtB4_4ListyENtNtCs3i3vE8eoeEl_4core7default7Default7defaultB8_
    19: 0000000000000000     0 FILE    LOCAL  DEFAULT  ABS 038atkslopmy5nyqket6vkxia
    20: ffff8000000018f0    76 FUNC    LOCAL  HIDDEN     2 _RNvMNtNtNtCs19MhURV36j2_4emkk7drivers3usb17standard_requestsNtB2_13UsbDescriptor20as_device_descriptor
    21: ffff800000001940    76 FUNC    LOCAL  HIDDEN     2 _RNvMNtNtNtCs19MhURV36j2_4emkk7drivers3usb17standard_requestsNtB2_13UsbDescriptor27as_configuration_descriptor
    22: 0000000000000000     0 FILE    LOCAL  DEFAULT  ABS 03p4xdh2kc9bekl0j6e3fmdw2
    23: ffff800000001a90    26 FUNC    LOCAL  DEFAULT    2 _RNvMNtNtCs3i3vE8eoeEl_4core3ptr9const_ptrPNtNtCs19MhURV36j2_4emkk11acpi_tables4DSDT7is_nullBI_
    24: ffff800000001af0    26 FUNC    LOCAL  DEFAULT    2 _RNvMNtNtCs3i3vE8eoeEl_4core3ptr9const_ptrPNtNtCs19MhURV36j2_4emkk11acpi_tables4FADT7is_nullBI_
    25: ffff800000001990   178 FUNC    LOCAL  HIDDEN     2 _RNCNvMs0_NtCs19MhURV36j2_4emkk11acpi_tablesNtB7_10AcpiTables9get_table0B9_
    26: ffff800000001a50    52 FUNC    LOCAL  HIDDEN     2 _RNvMNtNtCs3i3vE8eoeEl_4core3ptr9const_ptrPNtNtCs19MhURV36j2_4emkk11acpi_tables4DSDT6as_refBI_
    27: ffff800000001ab0    52 FUNC    LOCAL  HIDDEN     2 _RNvMNtNtCs3i3vE8eoeEl_4core3ptr9const_ptrPNtNtCs19MhURV36j2_4emkk11acpi_tables4FADT6as_refBI_
    28: ffff800000001b10    26 FUNC    LOCAL  HIDDEN     2 _RNvMNtNtCs3i3vE8eoeEl_4core3ptr9const_ptrPNtNtCs19MhURV36j2_4emkk11acpi_tables9AcpiTable7is_nullBI_
    29: 0000000000000000     0 FILE    LOCAL  DEFAULT  ABS 044wy05at5tm49fcmgdkfsdsy
    30: ffff800000001b30    54 FUNC    LOCAL  DEFAULT    2 _RNvXs11_NtNtCs3i3vE8eoeEl_4core3ops5arithhNtB6_3Sub3subCs19MhURV36j2_4emkk
    31: ffff800000001b70    32 FUNC    LOCAL  HIDDEN     2 _RNvXs1j_NtNtCs3i3vE8eoeEl_4core3ops5arithRhINtB6_3SubhE3subCs19MhURV36j2_4emkk
    32: 0000000000000000     0 FILE    LOCAL  DEFAULT  ABS 0bt2lithxmpg0dx1goc6gno3q
    33: ffff800000002100    24 FUNC    LOCAL  DEFAULT    2 _RNvMNtCs3i3vE8eoeEl_4core5sliceSNtNtNtCs19MhURV36j2_4emkk3pfs5linux6Ext2Fs4iterBA_
    34: ffff800000002160    26 FUNC    LOCAL  DEFAULT    2 _RNvMNtNtCs3i3vE8eoeEl_4core3ptr7mut_ptrONtNtNtCs19MhURV36j2_4emkk3pfs5linux12PhysicalExt27is_nullBI_
    35: ffff800000002280    26 FUNC    LOCAL  DEFAULT    2 _RNvMNtNtCs3i3vE8eoeEl_4core3ptr9const_ptrPNtNtNtCs19MhURV36j2_4emkk3pfs5linux12PhysicalExt27is_nullBK_
    36: ffff800000002200    26 FUNC    LOCAL  DEFAULT    2 _RNvMNtNtCs3i3vE8eoeEl_4core3ptr7mut_ptrONtNtNtCs19MhURV36j2_4emkk3pfs5linux14Ext2Superblock7is_nullBI_
    37: ffff8000000022e0    26 FUNC    LOCAL  DEFAULT    2 _RNvMNtNtCs3i3vE8eoeEl_4core3ptr9const_ptrPNtNtNtCs19MhURV36j2_4emkk3pfs5linux14Ext2Superblock7is_nullBK_
    38: ffff800000002260    26 FUNC    LOCAL  DEFAULT    2 _RNvMNtNtCs3i3vE8eoeEl_4core3ptr7mut_ptrONtNtNtCs19MhURV36j2_4emkk3pfs5linux22Ext2ExtendedSuperblock7is_nullBI_
    39: ffff800000002340    26 FUNC    LOCAL  DEFAULT    2 _RNvMNtNtCs3i3vE8eoeEl_4core3ptr9const_ptrPNtNtNtCs19MhURV36j2_4emkk3pfs5linux22Ext2ExtendedSuperblock7is_nullBK_
    40: ffff800000001b90  1377 FUNC    LOCAL  HIDDEN     2 _RINvMNtNtCs19MhURV36j2_4emkk3pfs5linuxNtB3_21PhysicalExt2Directory13foreach_entryNCNvMNtNtNtB7_3vfs3gfs9directoryNtB1m_12GfsDirectory14open_directory0EB7_
    41: ffff800000002120    52 FUNC    LOCAL  HIDDEN     2 _RNvMNtNtCs3i3vE8eoeEl_4core3ptr7mut_ptrONtNtNtCs19MhURV36j2_4emkk3pfs5linux12PhysicalExt26as_mutBI_
    42: ffff800000002180    52 FUNC    LOCAL  HIDDEN     2 _RNvMNtNtCs3i3vE8eoeEl_4core3ptr7mut_ptrONtNtNtCs19MhURV36j2_4emkk3pfs5linux14Ext2Superblock6as_mutBI_
    43: ffff8000000021c0    52 FUNC    LOCAL  HIDDEN     2 _RNvMNtNtCs3i3vE8eoeEl_4core3ptr7mut_ptrONtNtNtCs19MhURV36j2_4emkk3pfs5linux14Ext2Superblock6as_refBI_
    44: ffff800000002220    52 FUNC    LOCAL  HIDDEN     2 _RNvMNtNtCs3i3vE8eoeEl_4core3ptr7mut_ptrONtNtNtCs19MhURV36j2_4emkk3pfs5linux22Ext2ExtendedSuperblock6as_refBI_
    45: ffff8000000022a0    52 FUNC    LOCAL  HIDDEN     2 _RNvMNtNtCs3i3vE8eoeEl_4core3ptr9const_ptrPNtNtNtCs19MhURV36j2_4emkk3pfs5linux14Ext2Superblock6as_refBK_
    46: ffff800000002300    52 FUNC    LOCAL  HIDDEN     2 _RNvMNtNtCs3i3vE8eoeEl_4core3ptr9const_ptrPNtNtNtCs19MhURV36j2_4emkk3pfs5linux22Ext2ExtendedSuperblock6as_refBK_
    47: ffff800000002360    24 FUNC    LOCAL  HIDDEN     2 _RNvXs_NtNtCs3i3vE8eoeEl_4core5slice4iterRSNtNtNtCs19MhURV36j2_4emkk3pfs5linux6Ext2FsNtNtNtNtB8_4iter6traits7collect12IntoIterator9into_iterBK_
    48: 0000000000000000     0 FILE    LOCAL  DEFAULT  ABS 0jo31ml0lg2aper60w1x5cfzs
    49: ffff800000002600    26 FUNC    LOCAL  DEFAULT    2 _RNvMNtNtCs3i3vE8eoeEl_4core3ptr7mut_ptrONtNtNtNtCs19MhURV36j2_4emkk3vfs3gfs17directory_hashmap19GfsDirectoryHashmap7is_nullBK_
    50: ffff8000000026a0    26 FUNC    LOCAL  DEFAULT    2 _RNvMNtNtCs3i3vE8eoeEl_4core3ptr9const_ptrPNtNtNtNtCs19MhURV36j2_4emkk3vfs3gfs17directory_hashmap19GfsDirectoryHashmap7is_nullBM_
    51: ffff800000002670    36 FUNC    LOCAL  DEFAULT    2 _RNvMNtNtCs3i3vE8eoeEl_4core3ptr7mut_ptrOSNtNtNtNtCs19MhURV36j2_4emkk3vfs3gfs17directory_hashmap21DirectoryHashmapEntry7is_nullBL_
    52: ffff8000000026c0    30 FUNC    LOCAL  DEFAULT    2 _RNvMNtNtCs3i3vE8eoeEl_4core3ptr9const_ptrPSNtNtNtNtCs19MhURV36j2_4emkk3vfs3gfs17directory_hashmap21DirectoryHashmapEntry7is_nullBN_
    53: ffff800000002380   486 FUNC    LOCAL  HIDDEN     2 _RINvMs0_NtNtNtCs19MhURV36j2_4emkk3vfs3gfs17directory_hashmapNtB6_19GfsDirectoryHashmap8for_eachNCNvMs_NtNtBc_9processes6loaderNtB1C_15LoaderResources26load_nt64_system_libraries0EBc_
    54: ffff800000002570    34 FUNC    LOCAL  HIDDEN     2 _RNvMNtCs3i3vE8eoeEl_4core5sliceSNtNtNtNtCs19MhURV36j2_4emkk3vfs3gfs17directory_hashmap21DirectoryHashmapEntry15copy_from_sliceBC_
    55: ffff8000000025a0    24 FUNC    LOCAL  HIDDEN     2 _RNvMNtCs3i3vE8eoeEl_4core5sliceSNtNtNtNtCs19MhURV36j2_4emkk3vfs3gfs17directory_hashmap22DirectoryHashmapBucket8iter_mutBC_
    56: ffff8000000025c0    52 FUNC    LOCAL  HIDDEN     2 _RNvMNtNtCs3i3vE8eoeEl_4core3ptr7mut_ptrONtNtNtNtCs19MhURV36j2_4emkk3vfs3gfs17directory_hashmap19GfsDirectoryHashmap6as_mutBK_
    57: ffff800000002620    79 FUNC    LOCAL  HIDDEN     2 _RNvMNtNtCs3i3vE8eoeEl_4core3ptr7mut_ptrOSNtNtNtNtCs19MhURV36j2_4emkk3vfs3gfs17directory_hashmap21DirectoryHashmapEntry6as_mutBL_
    58: 0000000000000000     0 FILE    LOCAL  DEFAULT  ABS 0l7yab0requ6v3kk4lgjq8htb
    59: ffff8000000029e0 16650 FUNC    LOCAL  DEFAULT    2 _RNvNtNtCs19MhURV36j2_4emkk4arch10interrupts17write_idt_entries
    60: ffff800000002970    97 FUNC    LOCAL  DEFAULT    2 _RNvNtNtCs19MhURV36j2_4emkk4arch10interrupts15write_idt_entry
    61: ffff8000000b4000    10 OBJECT  LOCAL  DEFAULT   10 _RNvNtNtCs19MhURV36j2_4emkk4arch10interrupts24HOST_CORE_IDT_DESCRIPTOR
    62: ffff8000000026e0   652 FUNC    LOCAL  HIDDEN     2 _RNvMNtNtCs19MhURV36j2_4emkk4arch10interruptsNtB2_24InterruptDescriptorTable12new_and_load
    63: ffff800000006af0   417 FUNC    LOCAL  HIDDEN     2 _RNvNtNtCs19MhURV36j2_4emkk4arch10interrupts18idt_switch_address
    64: ffff800000006ca0   134 FUNC    LOCAL  HIDDEN     2 _RNvNtNtCs19MhURV36j2_4emkk4arch10interrupts21deactivate_interrupts
    65: ffff800000006d30    36 FUNC    LOCAL  HIDDEN     2 _RNvNtNtCs19MhURV36j2_4emkk4arch10interrupts24initialize_host_core_idt
    66: ffff8000000b4010    24 OBJECT  LOCAL  HIDDEN    10 _RNvNtNtCs19MhURV36j2_4emkk4arch10interrupts36HOST_CORE_INTERRUPT_DESCRIPTOR_TABLE
    67: 0000000000000000     0 FILE    LOCAL  DEFAULT  ABS 0q3sdll9nb0z1v7fwyzoiccv8
    68: ffff800000006d60    93 FUNC    LOCAL  HIDDEN     2 _RNvMNtNtNtCs19MhURV36j2_4emkk3vfs3gfs9directoryNtB2_12GfsDirectory11get_entries
    69: ffff800000006dc0    10 FUNC    LOCAL  HIDDEN     2 _RNvMNtNtNtCs19MhURV36j2_4emkk3vfs3gfs9directoryNtB2_12GfsDirectory12get_fs_index
    70: ffff800000006dd0    15 FUNC    LOCAL  HIDDEN     2 _RNvMNtNtNtCs19MhURV36j2_4emkk3vfs3gfs9directoryNtB2_12GfsDirectory13set_completed
    71: ffff800000006de0   818 FUNC    LOCAL  HIDDEN     2 _RNvMNtNtNtCs19MhURV36j2_4emkk3vfs3gfs9directoryNtB2_12GfsDirectory14open_directory
    72: ffff800000007120    76 FUNC    LOCAL  HIDDEN     2 _RNvMNtNtNtCs19MhURV36j2_4emkk3vfs3gfs9directoryNtB2_12GfsDirectory15get_entries_mut
    73: ffff800000007170   248 FUNC    LOCAL  HIDDEN     2 _RNvMNtNtNtCs19MhURV36j2_4emkk3vfs3gfs9directoryNtB2_12GfsDirectory21add_virtual_directory
    74: ffff800000007270    10 FUNC    LOCAL  HIDDEN     2 _RNvMNtNtNtCs19MhURV36j2_4emkk3vfs3gfs9directoryNtB2_12GfsDirectory25get_physical_storage_node
    75: ffff800000007280    76 FUNC    LOCAL  HIDDEN     2 _RNvMNtNtNtCs19MhURV36j2_4emkk3vfs3gfs9directoryNtB2_12GfsDirectory3new
    76: ffff8000000072d0   106 FUNC    LOCAL  HIDDEN     2 _RNvMNtNtNtCs19MhURV36j2_4emkk3vfs3gfs9directoryNtB2_12GfsDirectory8new_link
    77: 0000000000000000     0 FILE    LOCAL  DEFAULT  ABS 0tilpejbsu9f4lvspcn6jbfs9
    78: ffff800000007340   224 FUNC    LOCAL  DEFAULT    2 _RNvMsf_NtNtCs3i3vE8eoeEl_4core3str4iterINtB5_13SplitInternalcE4nextCs19MhURV36j2_4emkk
    79: ffff800000007420    12 FUNC    LOCAL  HIDDEN     2 _RNvXs17_NtNtCs3i3vE8eoeEl_4core3str4iterINtB6_15SplitTerminatorcENtNtNtNtBa_4iter6traits8iterator8Iterator4nextCs19MhURV36j2_4emkk
    80: ffff800000007430    52 FUNC    LOCAL  HIDDEN     2 _RNvYINtNtNtCs3i3vE8eoeEl_4core3str4iter15SplitTerminatorcENtNtNtNtB9_4iter6traits8iterator8Iterator8peekableCs19MhURV36j2_4emkk
    81: 0000000000000000     0 FILE    LOCAL  DEFAULT  ABS 0wzpu6i5xvuppow8b2jwc8gnh
    82: ffff8000000074b0    26 FUNC    LOCAL  DEFAULT    2 _RNvMNtNtCs3i3vE8eoeEl_4core3ptr9const_ptrPNtNtNtNtNtCs19MhURV36j2_4emkk7drivers3usb4ehci20configuration_parser23EhciDeviceConfiguration7is_nullBO_
    83: ffff800000007470    52 FUNC    LOCAL  HIDDEN     2 _RNvMNtNtCs3i3vE8eoeEl_4core3ptr9const_ptrPNtNtNtNtNtCs19MhURV36j2_4emkk7drivers3usb4ehci20configuration_parser23EhciDeviceConfiguration6as_refBO_
    84: 0000000000000000     0 FILE    LOCAL  DEFAULT  ABS 15chjvurf40lswetizpueabcc
    85: ffff8000000074d0    21 FUNC    LOCAL  HIDDEN     2 _RINvMs1_NtNtCs3i3vE8eoeEl_4core3ptr8non_nullINtB6_7NonNullNtNtNtBa_5panic10panic_info12PanicMessageE4castuECs19MhURV36j2_4emkk
    86: ffff8000000074f0    31 FUNC    LOCAL  HIDDEN     2 _RINvMs1_NtNtCs3i3vE8eoeEl_4core3ptr8non_nullINtB6_7NonNullSNtNtNtCs19MhURV36j2_4emkk3pfs3gpt17GptPartitionEntryE4castBV_EB11_
    87: ffff800000007510    31 FUNC    LOCAL  HIDDEN     2 _RINvMs1_NtNtCs3i3vE8eoeEl_4core3ptr8non_nullINtB6_7NonNullSNtNtNtCs19MhURV36j2_4emkk3pfs5linux6Ext2FsE4castBV_EB11_
    88: ffff800000007530    31 FUNC    LOCAL  HIDDEN     2 _RINvMs1_NtNtCs3i3vE8eoeEl_4core3ptr8non_nullINtB6_7NonNullSNtNtNtNtCs19MhURV36j2_4emkk3vfs3gfs17directory_hashmap22DirectoryHashmapBucketE4castBV_EB13_
    89: ffff800000007550    31 FUNC    LOCAL  HIDDEN     2 _RINvMs1_NtNtCs3i3vE8eoeEl_4core3ptr8non_nullINtB6_7NonNullSThyEE4castBV_ECs19MhURV36j2_4emkk
    90: ffff800000007570    10 FUNC    LOCAL  HIDDEN     2 _RNvMs1_NtNtCs3i3vE8eoeEl_4core3ptr8non_nullINtB5_7NonNullNtNtNtB9_5panic10panic_info12PanicMessageE8from_refCs19MhURV36j2_4emkk
    91: ffff800000007580    24 FUNC    LOCAL  HIDDEN     2 _RNvMs1_NtNtCs3i3vE8eoeEl_4core3ptr8non_nullINtB5_7NonNullSNtNtNtCs19MhURV36j2_4emkk3pfs3gpt17GptPartitionEntryE8from_refB10_
    92: ffff8000000075a0    24 FUNC    LOCAL  HIDDEN     2 _RNvMs1_NtNtCs3i3vE8eoeEl_4core3ptr8non_nullINtB5_7NonNullSNtNtNtCs19MhURV36j2_4emkk3pfs5linux6Ext2FsE8from_refB10_
    93: ffff8000000075c0    24 FUNC    LOCAL  HIDDEN     2 _RNvMs1_NtNtCs3i3vE8eoeEl_4core3ptr8non_nullINtB5_7NonNullSNtNtNtNtCs19MhURV36j2_4emkk3vfs3gfs17directory_hashmap22DirectoryHashmapBucketE8from_mutB12_
    94: ffff8000000075e0    24 FUNC    LOCAL  HIDDEN     2 _RNvMs1_NtNtCs3i3vE8eoeEl_4core3ptr8non_nullINtB5_7NonNullSThyEE8from_refCs19MhURV36j2_4emkk
    95: ffff800000007600    42 FUNC    LOCAL  HIDDEN     2 _RNvXse_NtNtCs3i3vE8eoeEl_4core3ptr8non_nullINtB5_7NonNullNtNtNtCs19MhURV36j2_4emkk3pfs3gpt17GptPartitionEntryENtNtB9_3cmp9PartialEq2eqBZ_
    96: ffff800000007630    42 FUNC    LOCAL  HIDDEN     2 _RNvXse_NtNtCs3i3vE8eoeEl_4core3ptr8non_nullINtB5_7NonNullNtNtNtCs19MhURV36j2_4emkk3pfs5linux6Ext2FsENtNtB9_3cmp9PartialEq2eqBZ_
    97: ffff800000007660    42 FUNC    LOCAL  HIDDEN     2 _RNvXse_NtNtCs3i3vE8eoeEl_4core3ptr8non_nullINtB5_7NonNullNtNtNtNtCs19MhURV36j2_4emkk3vfs3gfs17directory_hashmap22DirectoryHashmapBucketENtNtB9_3cmp9PartialEq2eqB11_
    98: ffff800000007690    42 FUNC    LOCAL  HIDDEN     2 _RNvXse_NtNtCs3i3vE8eoeEl_4core3ptr8non_nullINtB5_7NonNullThyEENtNtB9_3cmp9PartialEq2eqCs19MhURV36j2_4emkk
    99: 0000000000000000     0 FILE    LOCAL  DEFAULT  ABS 1692qzjrnufawipv64igrsw5s
   100: ffff8000000076c0   352 FUNC    LOCAL  HIDDEN     2 _RNvMNtNtNtNtNtCs19MhURV36j2_4emkk7drivers3usb4ehci10structures6deviceNtB2_10EhciDevice9new_reset
   101: ffff800000007820   121 FUNC    LOCAL  HIDDEN     2 _RNvXNtNtNtNtCs19MhURV36j2_4emkk7drivers3usb4ehci21extended_request_implNtNtNtB4_10structures6device10EhciDeviceNtNtB6_6traits24UsbDeviceExtendedRequest12set_protocol
   102: ffff800000008460    78 FUNC    LOCAL  HIDDEN     2 _RNvXs0_NtNtNtNtNtCs19MhURV36j2_4emkk7drivers3usb4ehci10structures6deviceNtB5_10EhciDeviceNtNtBb_6traits9UsbDevice22request_packet_address
   103: ffff800000008290   182 FUNC    LOCAL  HIDDEN     2 _RNvXs0_NtNtNtNtNtCs19MhURV36j2_4emkk7drivers3usb4ehci10structures6deviceNtB5_10EhciDeviceNtNtBb_6traits9UsbDevice15await_interrupt
   104: ffff8000000078a0   346 FUNC    LOCAL  HIDDEN     2 _RNvXNtNtNtNtCs19MhURV36j2_4emkk7drivers3usb4ehci21standard_request_implNtNtNtB4_10structures6device10EhciDeviceNtNtB6_17standard_requests24UsbDeviceStandardRequest10get_status
   105: ffff800000007a00   107 FUNC    LOCAL  HIDDEN     2 _RNvXNtNtNtNtCs19MhURV36j2_4emkk7drivers3usb4ehci21standard_request_implNtNtNtB4_10structures6device10EhciDeviceNtNtB6_17standard_requests24UsbDeviceStandardRequest11set_address
   106: ffff800000007a70   251 FUNC    LOCAL  HIDDEN     2 _RNvXNtNtNtNtCs19MhURV36j2_4emkk7drivers3usb4ehci21standard_request_implNtNtNtB4_10structures6device10EhciDeviceNtNtB6_17standard_requests24UsbDeviceStandardRequest11set_feature
   107: ffff800000007b70   251 FUNC    LOCAL  HIDDEN     2 _RNvXNtNtNtNtCs19MhURV36j2_4emkk7drivers3usb4ehci21standard_request_implNtNtNtB4_10structures6device10EhciDeviceNtNtB6_17standard_requests24UsbDeviceStandardRequest11synch_frame
   108: ffff800000007c70   213 FUNC    LOCAL  HIDDEN     2 _RNvXNtNtNtNtCs19MhURV36j2_4emkk7drivers3usb4ehci21standard_request_implNtNtNtB4_10structures6device10EhciDeviceNtNtB6_17standard_requests24UsbDeviceStandardRequest13clear_feature
   109: ffff800000007d50   208 FUNC    LOCAL  HIDDEN     2 _RNvXNtNtNtNtCs19MhURV36j2_4emkk7drivers3usb4ehci21standard_request_implNtNtNtB4_10structures6device10EhciDeviceNtNtB6_17standard_requests24UsbDeviceStandardRequest13get_interface
   110: ffff800000007e20   123 FUNC    LOCAL  HIDDEN     2 _RNvXNtNtNtNtCs19MhURV36j2_4emkk7drivers3usb4ehci21standard_request_implNtNtNtB4_10structures6device10EhciDeviceNtNtB6_17standard_requests24UsbDeviceStandardRequest13set_interface
   111: ffff800000007ea0   527 FUNC    LOCAL  HIDDEN     2 _RNvXNtNtNtNtCs19MhURV36j2_4emkk7drivers3usb4ehci21standard_request_implNtNtNtB4_10structures6device10EhciDeviceNtNtB6_17standard_requests24UsbDeviceStandardRequest14get_descriptor
   112: ffff8000000080b0   114 FUNC    LOCAL  HIDDEN     2 _RNvXNtNtNtNtCs19MhURV36j2_4emkk7drivers3usb4ehci21standard_request_implNtNtNtB4_10structures6device10EhciDeviceNtNtB6_17standard_requests24UsbDeviceStandardRequest14set_descriptor
   113: ffff800000008130   107 FUNC    LOCAL  HIDDEN     2 _RNvXNtNtNtNtCs19MhURV36j2_4emkk7drivers3usb4ehci21standard_request_implNtNtNtB4_10structures6device10EhciDeviceNtNtB6_17standard_requests24UsbDeviceStandardRequest17set_configuration
   114: ffff8000000081a0   192 FUNC    LOCAL  HIDDEN     2 _RNvXNtNtNtNtCs19MhURV36j2_4emkk7drivers3usb4ehci21standard_request_implNtNtNtB4_10structures6device10EhciDeviceNtNtB6_17standard_requests24UsbDeviceStandardRequest18get_configuratuion
   115: ffff800000008260    10 FUNC    LOCAL  HIDDEN     2 _RNvXs0_NtNtNtNtNtCs19MhURV36j2_4emkk7drivers3usb4ehci10structures6deviceNtB5_10EhciDeviceNtNtBb_6traits9UsbDevice14device_address
   116: ffff800000008270    10 FUNC    LOCAL  HIDDEN     2 _RNvXs0_NtNtNtNtNtCs19MhURV36j2_4emkk7drivers3usb4ehci10structures6deviceNtB5_10EhciDeviceNtNtBb_6traits9UsbDevice14endpoint_count
   117: ffff800000008280    10 FUNC    LOCAL  HIDDEN     2 _RNvXs0_NtNtNtNtNtCs19MhURV36j2_4emkk7drivers3usb4ehci10structures6deviceNtB5_10EhciDeviceNtNtBb_6traits9UsbDevice14get_class_code
   118: ffff800000008350   250 FUNC    LOCAL  HIDDEN     2 _RNvXs0_NtNtNtNtNtCs19MhURV36j2_4emkk7drivers3usb4ehci10structures6deviceNtB5_10EhciDeviceNtNtBb_6traits9UsbDevice17get_configuration
   119: ffff800000008450    10 FUNC    LOCAL  HIDDEN     2 _RNvXs0_NtNtNtNtNtCs19MhURV36j2_4emkk7drivers3usb4ehci10structures6deviceNtB5_10EhciDeviceNtNtBb_6traits9UsbDevice18get_sub_class_code
   120: ffff8000000084b0    10 FUNC    LOCAL  HIDDEN     2 _RNvXs0_NtNtNtNtNtCs19MhURV36j2_4emkk7drivers3usb4ehci10structures6deviceNtB5_10EhciDeviceNtNtBb_6traits9UsbDevice23get_configuration_count
   121: ffff8000000084c0    15 FUNC    LOCAL  HIDDEN     2 _RNvXs0_NtNtNtNtNtCs19MhURV36j2_4emkk7drivers3usb4ehci10structures6deviceNtB5_10EhciDeviceNtNtBb_6traits9UsbDevice6detach
   122: ffff8000000084d0    10 FUNC    LOCAL  HIDDEN     2 _RNvXs0_NtNtNtNtNtCs19MhURV36j2_4emkk7drivers3usb4ehci10structures6deviceNtB5_10EhciDeviceNtNtBb_6traits9UsbDevice8get_port
   123: ffff8000000084e0    10 FUNC    LOCAL  HIDDEN     2 _RNvXs0_NtNtNtNtNtCs19MhURV36j2_4emkk7drivers3usb4ehci10structures6deviceNtB5_10EhciDeviceNtNtBb_6traits9UsbDevice9get_state
   124: 0000000000000000     0 FILE    LOCAL  DEFAULT  ABS 178gxwb1tcni50vzlvg8s9fgw
   125: ffff8000000084f0     9 FUNC    LOCAL  DEFAULT    2 _RNvXNtNtNtCs19MhURV36j2_4emkk7drivers4disk4sataNtB2_8SataDiskNtB4_4Disk10identifier
   126: ffff800000008500    10 FUNC    LOCAL  DEFAULT    2 _RNvXNtNtNtCs19MhURV36j2_4emkk7drivers4disk4sataNtB2_8SataDiskNtB4_4Disk11num_sectors
   127: ffff800000008510    10 FUNC    LOCAL  DEFAULT    2 _RNvXNtNtNtCs19MhURV36j2_4emkk7drivers4disk4sataNtB2_8SataDiskNtB4_4Disk11sector_size
   128: ffff800000008520    31 FUNC    LOCAL  DEFAULT    2 _RNvXNtNtNtCs19MhURV36j2_4emkk7drivers4disk4sataNtB2_8SataDiskNtB4_4Disk16read_into_buffer
   129: ffff800000008540    31 FUNC    LOCAL  DEFAULT    2 _RNvXNtNtNtCs19MhURV36j2_4emkk7drivers4disk4sataNtB2_8SataDiskNtB4_4Disk17write_from_buffer
   130: ffff800000008560   314 FUNC    LOCAL  HIDDEN     2 _RNvXs1_NtNtNtCs19MhURV36j2_4emkk7drivers4disk4sataNtB5_14SataControllerNtB7_14DiskController8get_disk
   131: 0000000000000000     0 FILE    LOCAL  DEFAULT  ABS 1dyk7t2wglyc5ml5xmfnqlsbk
   132: ffff8000000086e0    26 FUNC    LOCAL  DEFAULT    2 _RNvMNtNtCs3i3vE8eoeEl_4core3ptr7mut_ptrONtNtNtNtNtCs19MhURV36j2_4emkk7drivers3usb4ehci15data_structures9QueueHead7is_nullBM_
   133: ffff800000008700    26 FUNC    LOCAL  DEFAULT    2 _RNvMNtNtCs3i3vE8eoeEl_4core3ptr9const_ptrPNtNtNtNtNtCs19MhURV36j2_4emkk7drivers3usb4ehci15data_structures9QueueHead7is_nullBO_
   134: ffff8000000086a0    52 FUNC    LOCAL  HIDDEN     2 _RNvMNtNtCs3i3vE8eoeEl_4core3ptr7mut_ptrONtNtNtNtNtCs19MhURV36j2_4emkk7drivers3usb4ehci15data_structures9QueueHead6as_mutBM_
   135: 0000000000000000     0 FILE    LOCAL  DEFAULT  ABS 1hxc67x6c4pzkp8lh94c9k2jf
   136: ffff800000008720   107 FUNC    LOCAL  HIDDEN     2 _RINvMNtNtCs3i3vE8eoeEl_4core3fmt2rtNtB3_8Argument11new_displayNtNtNtB7_5panic10panic_info12PanicMessageECs19MhURV36j2_4emkk
   137: ffff800000008790   107 FUNC    LOCAL  HIDDEN     2 _RINvMNtNtCs3i3vE8eoeEl_4core3fmt2rtNtB3_8Argument13new_lower_hexyECs19MhURV36j2_4emkk
   138: 0000000000000000     0 FILE    LOCAL  DEFAULT  ABS 1la1j4eagil2o98upvrvkzudh
   139: ffff800000008800   135 FUNC    LOCAL  DEFAULT    2 _RNvMs0_NtCs19MhURV36j2_4emkk3amlNtB5_10NameString11is_absolute
   140: ffff800000008890    62 FUNC    LOCAL  DEFAULT    2 _RNvMs1_NtCs19MhURV36j2_4emkk3amlNtB5_5Scope3new
   141: ffff8000000088d0    62 FUNC    LOCAL  DEFAULT    2 _RNvMs2_NtCs19MhURV36j2_4emkk3amlNtB5_6Device3new
   142: ffff800000008910    56 FUNC    LOCAL  DEFAULT    2 _RNvMs3_NtCs19MhURV36j2_4emkk3amlNtB5_5Mutex3new
   143: ffff800000008950    99 FUNC    LOCAL  DEFAULT    2 _RNvMs4_NtCs19MhURV36j2_4emkk3amlNtB5_6Method3new
   144: ffff8000000089c0    91 FUNC    LOCAL  DEFAULT    2 _RNvMs5_NtCs19MhURV36j2_4emkk3amlNtB5_15OperationRegion3new
   145: ffff800000008a20    86 FUNC    LOCAL  DEFAULT    2 _RNvMs6_NtCs19MhURV36j2_4emkk3amlNtB5_9Processor3new
   146: ffff800000008a80    91 FUNC    LOCAL  DEFAULT    2 _RNvMs7_NtCs19MhURV36j2_4emkk3amlNtB5_5Field3new
   147: ffff800000008ae0   476 FUNC    LOCAL  DEFAULT    2 _RNvMs9_NtCs19MhURV36j2_4emkk3amlNtB5_7AmlCode11store_local
   148: ffff80000000b660   225 FUNC    LOCAL  DEFAULT    2 _RNvMs_NtCs19MhURV36j2_4emkk3amlNtB4_8AmlValue6as_u64
   149: ffff800000009c10  1063 FUNC    LOCAL  DEFAULT    2 _RNvMs9_NtCs19MhURV36j2_4emkk3amlNtB5_7AmlCode15execute_method0
   150: ffff800000009010  1284 FUNC    LOCAL  DEFAULT    2 _RNvMs9_NtCs19MhURV36j2_4emkk3amlNtB5_7AmlCode14execute_opcode
   151: ffff800000009700  1291 FUNC    LOCAL  DEFAULT    2 _RNvMs9_NtCs19MhURV36j2_4emkk3amlNtB5_7AmlCode14unwrap_termarg
   152: ffff80000000a0b0   572 FUNC    LOCAL  DEFAULT    2 _RNvMs9_NtCs19MhURV36j2_4emkk3amlNtB5_7AmlCode16eval_termarg_int
   153: ffff80000000a040    97 FUNC    LOCAL  DEFAULT    2 _RNvMs9_NtCs19MhURV36j2_4emkk3amlNtB5_7AmlCode15execute_termarg
   154: ffff80000000a2f0  1848 FUNC    LOCAL  DEFAULT    2 _RNvMs9_NtCs19MhURV36j2_4emkk3amlNtB5_7AmlCode17unwrap_namestring
   155: ffff800000009520   474 FUNC    LOCAL  DEFAULT    2 _RNvMs9_NtCs19MhURV36j2_4emkk3amlNtB5_7AmlCode14store_argument
   156: ffff80000000aa30  2660 FUNC    LOCAL  DEFAULT    2 _RNvMs9_NtCs19MhURV36j2_4emkk3amlNtB5_7AmlCode21store_data_ref_object
   157: ffff80000000b750   349 FUNC    LOCAL  DEFAULT    2 _RNvMs_NtCs19MhURV36j2_4emkk3amlNtB4_8AmlValue8from_u64
   158: ffff80000000fca0   217 FUNC    LOCAL  DEFAULT    2 _RNvXNtCs19MhURV36j2_4emkk3amlNtB2_14AmlMethodFrameNtNtCs3i3vE8eoeEl_4core7default7Default7default
   159: ffff80000000b4a0   433 FUNC    LOCAL  DEFAULT    2 _RNvMs9_NtCs19MhURV36j2_4emkk3amlNtB5_7AmlCode22unwrap_data_ref_object
   160: ffff80000000b8b0    87 FUNC    LOCAL  DEFAULT    2 _RNvMs_NtCs19MhURV36j2_4emkk3amlNtB4_8AmlValue8get_type
   161: ffff80000000b910  2941 FUNC    LOCAL  DEFAULT    2 _RNvMsb_NtCs19MhURV36j2_4emkk3amlNtB5_7AmlCode11divide_path
   162: ffff80000000c490  1377 FUNC    LOCAL  DEFAULT    2 _RNvMsb_NtCs19MhURV36j2_4emkk3amlNtB5_7AmlCode14get_name_entry
   163: ffff80000000ca00    51 FUNC    LOCAL  DEFAULT    2 _RNvMsb_NtCs19MhURV36j2_4emkk3amlNtB5_7AmlCode18get_original_scope
   164: ffff80000000ca40    55 FUNC    LOCAL  DEFAULT    2 _RNvMsb_NtCs19MhURV36j2_4emkk3amlNtB5_7AmlCode19get_original_device
   165: ffff80000000ca80   647 FUNC    LOCAL  DEFAULT    2 _RNvMsb_NtCs19MhURV36j2_4emkk3amlNtB5_7AmlCode19parse_field_element
   166: ffff80000000fb80   184 FUNC    LOCAL  DEFAULT    2 _RNvMsb_NtCs19MhURV36j2_4emkk3amlNtB5_7AmlCode7advance
   167: ffff80000000cd10  3024 FUNC    LOCAL  DEFAULT    2 _RNvMsb_NtCs19MhURV36j2_4emkk3amlNtB5_7AmlCode21next_high_instruction
   168: ffff80000000fc40    92 FUNC    LOCAL  DEFAULT    2 _RNvMsb_NtCs19MhURV36j2_4emkk3amlNtB5_7AmlCode9last_addr
   169: ffff80000000e200  5114 FUNC    LOCAL  DEFAULT    2 _RNvMsb_NtCs19MhURV36j2_4emkk3amlNtB5_7AmlCode30next_extended_high_instruction
   170: ffff80000000e030   218 FUNC    LOCAL  DEFAULT    2 _RNvMsb_NtCs19MhURV36j2_4emkk3amlNtB5_7AmlCode22get_original_scope_mut
   171: ffff80000000d8e0  1861 FUNC    LOCAL  DEFAULT    2 _RNvMsb_NtCs19MhURV36j2_4emkk3amlNtB5_7AmlCode21parse_data_ref_object
   172: ffff80000000e110   233 FUNC    LOCAL  DEFAULT    2 _RNvMsb_NtCs19MhURV36j2_4emkk3amlNtB5_7AmlCode23get_original_device_mut
   173: ffff800000008cc0   840 FUNC    LOCAL  HIDDEN     2 _RNvMs9_NtCs19MhURV36j2_4emkk3amlNtB5_7AmlCode14execute_method
   174: ffff800000010460   190 FUNC    LOCAL  HIDDEN     2 _RNvXsa_NtCs19MhURV36j2_4emkk3amlNtB5_7AmlCodeNtNtNtB7_5utils6reader6Reader7read_u8
   175: ffff800000010520   192 FUNC    LOCAL  HIDDEN     2 _RNvXsa_NtCs19MhURV36j2_4emkk3amlNtB5_7AmlCodeNtNtNtB7_5utils6reader6Reader8read_u16
   176: ffff8000000105e0   192 FUNC    LOCAL  HIDDEN     2 _RNvXsa_NtCs19MhURV36j2_4emkk3amlNtB5_7AmlCodeNtNtNtB7_5utils6reader6Reader8read_u32
   177: ffff8000000106a0   192 FUNC    LOCAL  HIDDEN     2 _RNvXsa_NtCs19MhURV36j2_4emkk3amlNtB5_7AmlCodeNtNtNtB7_5utils6reader6Reader8read_u64
   178: ffff80000000f600  1395 FUNC    LOCAL  HIDDEN     2 _RNvMsb_NtCs19MhURV36j2_4emkk3amlNtB5_7AmlCode3new
   179: ffff80000000fd80   906 FUNC    LOCAL  HIDDEN     2 _RNvXs8_NtCs19MhURV36j2_4emkk3amlNtB5_7AmlCodeNtNtCs3i3vE8eoeEl_4core7default7Default7default
   180: ffff800000010110   268 FUNC    LOCAL  HIDDEN     2 _RNvXsa_NtCs19MhURV36j2_4emkk3amlNtB5_7AmlCodeNtNtNtB7_5utils6reader6Reader10read_bytes
   181: ffff800000010220   226 FUNC    LOCAL  HIDDEN     2 _RNvXsa_NtCs19MhURV36j2_4emkk3amlNtB5_7AmlCodeNtNtNtB7_5utils6reader6Reader4skip
   182: ffff800000010310    14 FUNC    LOCAL  HIDDEN     2 _RNvXsa_NtCs19MhURV36j2_4emkk3amlNtB5_7AmlCodeNtNtNtB7_5utils6reader6Reader7current
   183: ffff800000010320   202 FUNC    LOCAL  HIDDEN     2 _RNvXsa_NtCs19MhURV36j2_4emkk3amlNtB5_7AmlCodeNtNtNtB7_5utils6reader6Reader7go_back
   184: ffff8000000103f0   110 FUNC    LOCAL  HIDDEN     2 _RNvXsa_NtCs19MhURV36j2_4emkk3amlNtB5_7AmlCodeNtNtNtB7_5utils6reader6Reader7peek_u8
   185: ffff800000010760    37 FUNC    LOCAL  HIDDEN     2 _RNvXsm_NtCs19MhURV36j2_4emkk3amlNtB5_15OperationRegionNtNtCs3i3vE8eoeEl_4core5clone5Clone5cloneB7_
   186: 0000000000000000     0 FILE    LOCAL  DEFAULT  ABS 1majniiypcl4eq9z2v6j5klee
   187: ffff800000010900  2977 FUNC    LOCAL  DEFAULT    2 _RNvMs_NtNtNtCs19MhURV36j2_4emkk7drivers4disk4nvmeNtB4_14NVMeController13construct_prp
   188: ffff8000000114b0   518 FUNC    LOCAL  DEFAULT    2 _RNvMs_NtNtNtCs19MhURV36j2_4emkk7drivers4disk4nvmeNtB4_14NVMeController13dispatch_read
   189: ffff800000011a70    69 FUNC    LOCAL  DEFAULT    2 _RNvMs_NtNtNtCs19MhURV36j2_4emkk7drivers4disk4nvmeNtB4_14NVMeController14dispatch_admin
   190: ffff800000011ac0   518 FUNC    LOCAL  DEFAULT    2 _RNvMs_NtNtNtCs19MhURV36j2_4emkk7drivers4disk4nvmeNtB4_14NVMeController14dispatch_write
   191: ffff800000011cd0   670 FUNC    LOCAL  DEFAULT    2 _RNvMs_NtNtNtCs19MhURV36j2_4emkk7drivers4disk4nvmeNtB4_14NVMeController16setup_controller
   192: ffff800000011f70   799 FUNC    LOCAL  DEFAULT    2 _RNvMs_NtNtNtCs19MhURV36j2_4emkk7drivers4disk4nvmeNtB4_14NVMeController19identify_controller
   193: ffff800000012290  1654 FUNC    LOCAL  DEFAULT    2 _RNvMs_NtNtNtCs19MhURV36j2_4emkk7drivers4disk4nvmeNtB4_14NVMeController19identify_namespaces
   194: ffff800000012910   913 FUNC    LOCAL  DEFAULT    2 _RNvMs_NtNtNtCs19MhURV36j2_4emkk7drivers4disk4nvmeNtB4_14NVMeController21create_basic_io_pairs
   195: ffff800000012cb0   121 FUNC    LOCAL  DEFAULT    2 _RNvMs_NtNtNtCs19MhURV36j2_4emkk7drivers4disk4nvmeNtB4_14NVMeController9bulk_size
   196: ffff800000012d50  1138 FUNC    LOCAL  DEFAULT    2 _RNvNtNtNtCs19MhURV36j2_4emkk7drivers4disk4nvme8nvme_irq
   197: ffff8000000b0000     8 OBJECT  LOCAL  DEFAULT    6 _RNvNtNtNtCs19MhURV36j2_4emkk7drivers4disk4nvme15NVME_CONTROLLER
   198: ffff8000000131d0    10 FUNC    LOCAL  DEFAULT    2 _RNvXNtNtNtCs19MhURV36j2_4emkk7drivers4disk4nvmeNtB2_8NVMeDiskNtB4_4Disk10identifier
   199: ffff8000000131e0    10 FUNC    LOCAL  DEFAULT    2 _RNvXNtNtNtCs19MhURV36j2_4emkk7drivers4disk4nvmeNtB2_8NVMeDiskNtB4_4Disk11num_sectors
   200: ffff8000000131f0    10 FUNC    LOCAL  DEFAULT    2 _RNvXNtNtNtCs19MhURV36j2_4emkk7drivers4disk4nvmeNtB2_8NVMeDiskNtB4_4Disk11sector_size
   201: ffff800000013200  1641 FUNC    LOCAL  DEFAULT    2 _RNvXNtNtNtCs19MhURV36j2_4emkk7drivers4disk4nvmeNtB2_8NVMeDiskNtB4_4Disk16read_into_buffer
   202: ffff800000013870  1609 FUNC    LOCAL  DEFAULT    2 _RNvXNtNtNtCs19MhURV36j2_4emkk7drivers4disk4nvmeNtB2_8NVMeDiskNtB4_4Disk17write_from_buffer
   203: ffff800000010790   365 FUNC    LOCAL  HIDDEN     2 _RNvMs_NtNtNtCs19MhURV36j2_4emkk7drivers4disk4nvmeNtB4_14NVMeController11not_present
   204: ffff8000000116c0   940 FUNC    LOCAL  HIDDEN     2 _RNvMs_NtNtNtCs19MhURV36j2_4emkk7drivers4disk4nvmeNtB4_14NVMeController14create_io_pair
   205: ffff800000012d30    30 FUNC    LOCAL  HIDDEN     2 _RNvMs_NtNtNtCs19MhURV36j2_4emkk7drivers4disk4nvmeNtB4_14NVMeController9sync_vmem
   206: ffff800000013ec0   394 FUNC    LOCAL  HIDDEN     2 _RNvXs0_NtNtNtCs19MhURV36j2_4emkk7drivers4disk4nvmeNtB5_14NVMeControllerNtB7_14DiskController16get_disk_indexed
   207: ffff800000014050    13 FUNC    LOCAL  HIDDEN     2 _RNvXs0_NtNtNtCs19MhURV36j2_4emkk7drivers4disk4nvmeNtB5_14NVMeControllerNtB7_14DiskController17num_disks_present
   208: ffff800000014060   587 FUNC    LOCAL  HIDDEN     2 _RNvXs0_NtNtNtCs19MhURV36j2_4emkk7drivers4disk4nvmeNtB5_14NVMeControllerNtB7_14DiskController3new
   209: ffff8000000142b0    15 FUNC    LOCAL  HIDDEN     2 _RNvXs0_NtNtNtCs19MhURV36j2_4emkk7drivers4disk4nvmeNtB5_14NVMeControllerNtB7_14DiskController7present
   210: ffff8000000142c0   508 FUNC    LOCAL  HIDDEN     2 _RNvXs0_NtNtNtCs19MhURV36j2_4emkk7drivers4disk4nvmeNtB5_14NVMeControllerNtB7_14DiskController8get_disk
   211: 0000000000000000     0 FILE    LOCAL  DEFAULT  ABS 1oblw8ijvg9p2vafgvg9xh4st
   212: ffff8000000144c0   600 FUNC    LOCAL  HIDDEN     2 _RNvCscPXrf1V1aal_7___rustc17rust_begin_unwind
   213: 0000000000000000     0 FILE    LOCAL  DEFAULT  ABS 1xe2rda7lyg13nxei1r97x08t
   214: ffff800000014720   403 FUNC    LOCAL  DEFAULT    2 _RNvMs_NtNtCs19MhURV36j2_4emkk7drivers4hpetNtB4_4Hpet11flush_timer
   215: ffff8000000148c0   180 FUNC    LOCAL  DEFAULT    2 _RNvMs_NtNtCs19MhURV36j2_4emkk7drivers4hpetNtB4_4Hpet13enable_timer0
   216: ffff800000014980   559 FUNC    LOCAL  DEFAULT    2 _RNvMs_NtNtCs19MhURV36j2_4emkk7drivers4hpetNtB4_4Hpet13fully_disable
   217: ffff800000014bb0   141 FUNC    LOCAL  DEFAULT    2 _RNvMs_NtNtCs19MhURV36j2_4emkk7drivers4hpetNtB4_4Hpet14enable_general
   218: ffff800000014c40  1540 FUNC    LOCAL  HIDDEN     2 _RNvMs_NtNtCs19MhURV36j2_4emkk7drivers4hpetNtB4_4Hpet3new
   219: ffff800000015250    34 FUNC    LOCAL  HIDDEN     2 _RNvMs_NtNtCs19MhURV36j2_4emkk7drivers4hpetNtB4_4Hpet5reset
   220: ffff800000015280    34 FUNC    LOCAL  HIDDEN     2 _RNvMs_NtNtCs19MhURV36j2_4emkk7drivers4hpetNtB4_4Hpet6enable
   221: ffff8000000152b0     3 FUNC    LOCAL  HIDDEN     2 _RNvXNtNtCs19MhURV36j2_4emkk7drivers4hpetNtB2_4HpetNtNtCs3i3vE8eoeEl_4core7default7Default7default
   222: 0000000000000000     0 FILE    LOCAL  DEFAULT  ABS 23l16xy2ajn7w8imwk7kres6o
   223: ffff800000015370    10 FUNC    LOCAL  DEFAULT    2 _RNvMNtNtNtCs19MhURV36j2_4emkk7drivers4disk14nvme_registersNtB2_7NVMeCap3new
   224: ffff8000000153a0    31 FUNC    LOCAL  DEFAULT    2 _RNvMNtNtNtCs19MhURV36j2_4emkk7drivers4disk14nvme_registersNtB2_7NVMeCap5dstrd
   225: ffff800000015440    10 FUNC    LOCAL  DEFAULT    2 _RNvMs0_NtNtNtCs19MhURV36j2_4emkk7drivers4disk14nvme_registersNtB5_6NVMeCC3new
   226: ffff800000015480    10 FUNC    LOCAL  DEFAULT    2 _RNvMs1_NtNtNtCs19MhURV36j2_4emkk7drivers4disk14nvme_registersNtB5_8NVMeCsts3new
   227: ffff8000000154c0    10 FUNC    LOCAL  DEFAULT    2 _RNvMs2_NtNtNtCs19MhURV36j2_4emkk7drivers4disk14nvme_registersNtB5_7NVMeAqa3new
   228: ffff8000000156f0   154 FUNC    LOCAL  DEFAULT    2 _RNvMs3_NtNtNtCs19MhURV36j2_4emkk7drivers4disk14nvme_registersNtB5_7NVMeBar17offset_as_mut_u32
   229: ffff8000000155b0   154 FUNC    LOCAL  DEFAULT    2 _RNvMs3_NtNtNtCs19MhURV36j2_4emkk7drivers4disk14nvme_registersNtB5_7NVMeBar13offset_as_u32
   230: ffff800000015650   154 FUNC    LOCAL  DEFAULT    2 _RNvMs3_NtNtNtCs19MhURV36j2_4emkk7drivers4disk14nvme_registersNtB5_7NVMeBar13offset_as_u64
   231: ffff800000015790   154 FUNC    LOCAL  DEFAULT    2 _RNvMs3_NtNtNtCs19MhURV36j2_4emkk7drivers4disk14nvme_registersNtB5_7NVMeBar17offset_as_mut_u64
   232: ffff8000000158a0    24 FUNC    LOCAL  HIDDEN     2 _RNvMs3_NtNtNtCs19MhURV36j2_4emkk7drivers4disk14nvme_registersNtB5_7NVMeBar3new
   233: ffff800000015880    24 FUNC    LOCAL  HIDDEN     2 _RNvMs3_NtNtNtCs19MhURV36j2_4emkk7drivers4disk14nvme_registersNtB5_7NVMeBar3cap
   234: ffff800000015380    27 FUNC    LOCAL  HIDDEN     2 _RNvMNtNtNtCs19MhURV36j2_4emkk7drivers4disk14nvme_registersNtB2_7NVMeCap4mqes
   235: ffff8000000158e0   328 FUNC    LOCAL  HIDDEN     2 _RNvMs3_NtNtNtCs19MhURV36j2_4emkk7drivers4disk14nvme_registersNtB5_7NVMeBar4hdbl
   236: ffff800000015a30   288 FUNC    LOCAL  HIDDEN     2 _RNvMs3_NtNtNtCs19MhURV36j2_4emkk7drivers4disk14nvme_registersNtB5_7NVMeBar4tdbl
   237: ffff8000000158c0    25 FUNC    LOCAL  HIDDEN     2 _RNvMs3_NtNtNtCs19MhURV36j2_4emkk7drivers4disk14nvme_registersNtB5_7NVMeBar4csts
   238: ffff800000015490    41 FUNC    LOCAL  HIDDEN     2 _RNvMs1_NtNtNtCs19MhURV36j2_4emkk7drivers4disk14nvme_registersNtB5_8NVMeCsts3rdy
   239: ffff800000015840    25 FUNC    LOCAL  HIDDEN     2 _RNvMs3_NtNtNtCs19MhURV36j2_4emkk7drivers4disk14nvme_registersNtB5_7NVMeBar2cc
   240: ffff800000015450    45 FUNC    LOCAL  HIDDEN     2 _RNvMs0_NtNtNtCs19MhURV36j2_4emkk7drivers4disk14nvme_registersNtB5_6NVMeCC6set_en
   241: ffff800000015860    25 FUNC    LOCAL  HIDDEN     2 _RNvMs3_NtNtNtCs19MhURV36j2_4emkk7drivers4disk14nvme_registersNtB5_7NVMeBar3aqa
   242: ffff800000015510    59 FUNC    LOCAL  HIDDEN     2 _RNvMs2_NtNtNtCs19MhURV36j2_4emkk7drivers4disk14nvme_registersNtB5_7NVMeAqa8set_asqs
   243: ffff8000000154d0    62 FUNC    LOCAL  HIDDEN     2 _RNvMs2_NtNtNtCs19MhURV36j2_4emkk7drivers4disk14nvme_registersNtB5_7NVMeAqa8set_acqs
   244: ffff800000015b50    40 FUNC    LOCAL  HIDDEN     2 _RNvMs3_NtNtNtCs19MhURV36j2_4emkk7drivers4disk14nvme_registersNtB5_7NVMeBar7set_acq
   245: ffff800000015b80    40 FUNC    LOCAL  HIDDEN     2 _RNvMs3_NtNtNtCs19MhURV36j2_4emkk7drivers4disk14nvme_registersNtB5_7NVMeBar7set_asq
   246: ffff800000015550    91 FUNC    LOCAL  HIDDEN     2 _RNvMs3_NtNtNtCs19MhURV36j2_4emkk7drivers4disk14nvme_registersNtB5_7NVMeBar11clear_intmc
   247: ffff8000000153c0    57 FUNC    LOCAL  HIDDEN     2 _RNvMs0_NtNtNtCs19MhURV36j2_4emkk7drivers4disk14nvme_registersNtB5_6NVMeCC10set_iocqes
   248: ffff800000015400    57 FUNC    LOCAL  HIDDEN     2 _RNvMs0_NtNtNtCs19MhURV36j2_4emkk7drivers4disk14nvme_registersNtB5_6NVMeCC10set_iosqes
   249: ffff800000015830    10 FUNC    LOCAL  HIDDEN     2 _RNvMs3_NtNtNtCs19MhURV36j2_4emkk7drivers4disk14nvme_registersNtB5_7NVMeBar20get_physical_address
   250: 0000000000000000     0 FILE    LOCAL  DEFAULT  ABS 27br1c7am4tm2ezbtdyifv232
   251: ffff800000015bb0    36 FUNC    LOCAL  HIDDEN     2 _RNvMNtNtNtCs3i3vE8eoeEl_4core4iter8adapters9enumerateINtB2_9EnumerateINtNtNtB8_5slice4iter4IterNtNtNtCs19MhURV36j2_4emkk3pfs3gpt17GptPartitionEntryEE3newB1B_
   252: ffff800000015be0    36 FUNC    LOCAL  HIDDEN     2 _RNvMNtNtNtCs3i3vE8eoeEl_4core4iter8adapters9enumerateINtB2_9EnumerateINtNtNtB8_5slice4iter7IterMutNtNtNtNtCs19MhURV36j2_4emkk3vfs3gfs17directory_hashmap22DirectoryHashmapBucketEE3newB1G_
   253: ffff800000015c10    14 FUNC    LOCAL  HIDDEN     2 _RNvMNtNtNtCs3i3vE8eoeEl_4core4iter8adapters9enumerateINtB2_9EnumerateQNtNtNtCs19MhURV36j2_4emkk9processes2pe27PeImportLookupTableIteratorE3newB1c_
   254: ffff800000015c20    26 FUNC    LOCAL  HIDDEN     2 _RNvXNtNtNtCs3i3vE8eoeEl_4core4iter6traits7collectINtNtNtB6_8adapters9enumerate9EnumerateINtNtNtB8_5slice4iter4IterNtNtNtCs19MhURV36j2_4emkk3pfs3gpt17GptPartitionEntryEENtB2_12IntoIterator9into_iterB1U_
   255: ffff800000015c40    26 FUNC    LOCAL  HIDDEN     2 _RNvXNtNtNtCs3i3vE8eoeEl_4core4iter6traits7collectINtNtNtB6_8adapters9enumerate9EnumerateINtNtNtB8_5slice4iter7IterMutNtNtNtNtCs19MhURV36j2_4emkk3vfs3gfs17directory_hashmap22DirectoryHashmapBucketEENtB2_12IntoIterator9into_iterB1Z_
   256: ffff800000015c60   193 FUNC    LOCAL  HIDDEN     2 _RNvXs_NtNtNtCs3i3vE8eoeEl_4core4iter8adapters9enumerateINtB4_9EnumerateINtNtNtBa_5slice4iter4IterNtNtNtCs19MhURV36j2_4emkk3pfs3gpt17GptPartitionEntryEENtNtNtB8_6traits8iterator8Iterator4nextB1D_
   257: ffff800000015d30   193 FUNC    LOCAL  HIDDEN     2 _RNvXs_NtNtNtCs3i3vE8eoeEl_4core4iter8adapters9enumerateINtB4_9EnumerateINtNtNtBa_5slice4iter7IterMutNtNtNtNtCs19MhURV36j2_4emkk3vfs3gfs17directory_hashmap22DirectoryHashmapBucketEENtNtNtB8_6traits8iterator8Iterator4nextB1I_
   258: ffff800000015e00   273 FUNC    LOCAL  HIDDEN     2 _RNvXs_NtNtNtCs3i3vE8eoeEl_4core4iter8adapters9enumerateINtB4_9EnumerateQNtNtNtCs19MhURV36j2_4emkk9processes2pe27PeImportLookupTableIteratorENtNtNtB8_6traits8iterator8Iterator4nextB1e_
   259: 0000000000000000     0 FILE    LOCAL  DEFAULT  ABS 27z4dhff5q2o9qynfe36gs2be
   260: ffff800000015fc0    73 FUNC    LOCAL  HIDDEN     2 _RINvNtCs3i3vE8eoeEl_4core3ptr13read_volatileyECs19MhURV36j2_4emkk
   261: ffff8000000162e0    76 FUNC    LOCAL  HIDDEN     2 _RINvNtCs3i3vE8eoeEl_4core3ptr14write_volatileyECs19MhURV36j2_4emkk
   262: ffff800000015f20    70 FUNC    LOCAL  HIDDEN     2 _RINvNtCs3i3vE8eoeEl_4core3ptr13read_volatilehECs19MhURV36j2_4emkk
   263: ffff800000015f70    70 FUNC    LOCAL  HIDDEN     2 _RINvNtCs3i3vE8eoeEl_4core3ptr13read_volatilemECs19MhURV36j2_4emkk
   264: ffff800000016010   151 FUNC    LOCAL  HIDDEN     2 _RINvNtCs3i3vE8eoeEl_4core3ptr14read_unalignedhECs19MhURV36j2_4emkk
   265: ffff8000000160b0   153 FUNC    LOCAL  HIDDEN     2 _RINvNtCs3i3vE8eoeEl_4core3ptr14read_unalignedmECs19MhURV36j2_4emkk
   266: ffff800000016150   158 FUNC    LOCAL  HIDDEN     2 _RINvNtCs3i3vE8eoeEl_4core3ptr14read_unalignedtECs19MhURV36j2_4emkk
   267: ffff8000000161f0   158 FUNC    LOCAL  HIDDEN     2 _RINvNtCs3i3vE8eoeEl_4core3ptr14read_unalignedyECs19MhURV36j2_4emkk
   268: ffff800000016290    72 FUNC    LOCAL  HIDDEN     2 _RINvNtCs3i3vE8eoeEl_4core3ptr14write_volatilemECs19MhURV36j2_4emkk
   269: ffff800000016330    24 FUNC    LOCAL  HIDDEN     2 _RINvNtCs3i3vE8eoeEl_4core3ptr20slice_from_raw_partsNtNtNtCs19MhURV36j2_4emkk3pfs3gpt17GptPartitionEntryEBT_
   270: ffff800000016350    24 FUNC    LOCAL  HIDDEN     2 _RINvNtCs3i3vE8eoeEl_4core3ptr20slice_from_raw_partsNtNtNtNtCs19MhURV36j2_4emkk3hal6memory9allocator11MemoryBlockEBV_
   271: ffff800000016370    24 FUNC    LOCAL  HIDDEN     2 _RINvNtCs3i3vE8eoeEl_4core3ptr20slice_from_raw_partsNtNtNtNtCs19MhURV36j2_4emkk9processes2pe10structures18ImageDataDirectoryEBV_
   272: ffff800000016390    24 FUNC    LOCAL  HIDDEN     2 _RINvNtCs3i3vE8eoeEl_4core3ptr20slice_from_raw_partsNtNtNtNtCs19MhURV36j2_4emkk9processes2pe10structures18ImageSectionHeaderEBV_
   273: ffff8000000163b0    24 FUNC    LOCAL  HIDDEN     2 _RINvNtCs3i3vE8eoeEl_4core3ptr20slice_from_raw_partsmECs19MhURV36j2_4emkk
   274: ffff8000000163d0    24 FUNC    LOCAL  HIDDEN     2 _RINvNtCs3i3vE8eoeEl_4core3ptr20slice_from_raw_partstECs19MhURV36j2_4emkk
   275: ffff8000000163f0    24 FUNC    LOCAL  HIDDEN     2 _RINvNtCs3i3vE8eoeEl_4core3ptr24slice_from_raw_parts_mutINtNtB4_6option6OptionNtNtNtCs19MhURV36j2_4emkk3vfs3gfs11GfsNtfsRootEEB1j_
   276: ffff800000016410    24 FUNC    LOCAL  HIDDEN     2 _RINvNtCs3i3vE8eoeEl_4core3ptr24slice_from_raw_parts_mutNtNtCs19MhURV36j2_4emkk9processes11ApplicationEBV_
   277: ffff800000016430    24 FUNC    LOCAL  HIDDEN     2 _RINvNtCs3i3vE8eoeEl_4core3ptr24slice_from_raw_parts_mutNtNtNtCs19MhURV36j2_4emkk3pfs5linux22PhysicalExt2BlockGroupEBX_
   278: ffff800000016450    24 FUNC    LOCAL  HIDDEN     2 _RINvNtCs3i3vE8eoeEl_4core3ptr24slice_from_raw_parts_mutNtNtNtCs19MhURV36j2_4emkk3pfs5linux6Ext2FsEBX_
   279: ffff800000016470    24 FUNC    LOCAL  HIDDEN     2 _RINvNtCs3i3vE8eoeEl_4core3ptr24slice_from_raw_parts_mutNtNtNtCs19MhURV36j2_4emkk3vfs3gfs5GfsFsEBX_
   280: ffff800000016490    24 FUNC    LOCAL  HIDDEN     2 _RINvNtCs3i3vE8eoeEl_4core3ptr24slice_from_raw_parts_mutNtNtNtCs19MhURV36j2_4emkk4arch10interrupts8IdtEntryEBX_
   281: ffff8000000164b0    24 FUNC    LOCAL  HIDDEN     2 _RINvNtCs3i3vE8eoeEl_4core3ptr24slice_from_raw_parts_mutNtNtNtCs19MhURV36j2_4emkk5utils10allocators4NodeEBX_
   282: ffff8000000164d0    24 FUNC    LOCAL  HIDDEN     2 _RINvNtCs3i3vE8eoeEl_4core3ptr24slice_from_raw_parts_mutNtNtNtCs19MhURV36j2_4emkk9processes10mark_table15MarkTableBucketEBX_
   283: ffff8000000164f0    24 FUNC    LOCAL  HIDDEN     2 _RINvNtCs3i3vE8eoeEl_4core3ptr24slice_from_raw_parts_mutNtNtNtNtCs19MhURV36j2_4emkk3vfs3gfs17directory_hashmap19GfsDirectoryHashmapEBZ_
   284: ffff800000016510    24 FUNC    LOCAL  HIDDEN     2 _RINvNtCs3i3vE8eoeEl_4core3ptr24slice_from_raw_parts_mutNtNtNtNtCs19MhURV36j2_4emkk3vfs3gfs17directory_hashmap21DirectoryHashmapEntryEBZ_
   285: ffff800000016530    24 FUNC    LOCAL  HIDDEN     2 _RINvNtCs3i3vE8eoeEl_4core3ptr24slice_from_raw_parts_mutNtNtNtNtCs19MhURV36j2_4emkk3vfs3gfs17directory_hashmap22DirectoryHashmapBucketEBZ_
   286: ffff800000016550    24 FUNC    LOCAL  HIDDEN     2 _RINvNtCs3i3vE8eoeEl_4core3ptr24slice_from_raw_parts_mutNtNtNtNtCs19MhURV36j2_4emkk3vfs3gfs4file7GfsFileEBZ_
   287: ffff800000016570    24 FUNC    LOCAL  HIDDEN     2 _RINvNtCs3i3vE8eoeEl_4core3ptr24slice_from_raw_parts_mutNtNtNtNtCs19MhURV36j2_4emkk3vfs3gfs9directory12GfsDirectoryEBZ_
   288: ffff800000016590    24 FUNC    LOCAL  HIDDEN     2 _RINvNtCs3i3vE8eoeEl_4core3ptr24slice_from_raw_parts_mutNtNtNtNtCs19MhURV36j2_4emkk7drivers4disk15nvme_structures19NVMeCompletionEntryEBZ_
   289: ffff8000000165b0    24 FUNC    LOCAL  HIDDEN     2 _RINvNtCs3i3vE8eoeEl_4core3ptr24slice_from_raw_parts_mutNtNtNtNtCs19MhURV36j2_4emkk7drivers4disk15nvme_structures19NVMeSubmissionEntryEBZ_
   290: ffff8000000165d0    24 FUNC    LOCAL  HIDDEN     2 _RINvNtCs3i3vE8eoeEl_4core3ptr24slice_from_raw_parts_mutTReRNtNtNtNtCs19MhURV36j2_4emkk3vfs3gfs4file7GfsFileEEB13_
   291: ffff8000000165f0    24 FUNC    LOCAL  HIDDEN     2 _RINvNtCs3i3vE8eoeEl_4core3ptr24slice_from_raw_parts_mutThyEECs19MhURV36j2_4emkk
   292: ffff800000016610    24 FUNC    LOCAL  HIDDEN     2 _RINvNtCs3i3vE8eoeEl_4core3ptr24slice_from_raw_parts_mutTmmEECs19MhURV36j2_4emkk
   293: ffff800000016630    24 FUNC    LOCAL  HIDDEN     2 _RINvNtCs3i3vE8eoeEl_4core3ptr24slice_from_raw_parts_mutyECs19MhURV36j2_4emkk
   294: ffff800000016650    62 FUNC    LOCAL  HIDDEN     2 _RINvNtCs3i3vE8eoeEl_4core3ptr4readmECs19MhURV36j2_4emkk
   295: ffff800000016690    63 FUNC    LOCAL  HIDDEN     2 _RINvNtCs3i3vE8eoeEl_4core3ptr4readtECs19MhURV36j2_4emkk
   296: ffff8000000166d0    63 FUNC    LOCAL  HIDDEN     2 _RINvNtCs3i3vE8eoeEl_4core3ptr4readyECs19MhURV36j2_4emkk
   297: ffff800000016710    74 FUNC    LOCAL  HIDDEN     2 _RINvNtCs3i3vE8eoeEl_4core3ptr5writemECs19MhURV36j2_4emkk
   298: 0000000000000000     0 FILE    LOCAL  DEFAULT  ABS 28xmu93klv2ituw8ixinvwasx
   299: ffff8000000167a0    26 FUNC    LOCAL  DEFAULT    2 _RNvMNtNtCs3i3vE8eoeEl_4core3ptr7mut_ptrONtNtCs19MhURV36j2_4emkk9processes18ApplicationComplex7is_nullBG_
   300: ffff800000016880    26 FUNC    LOCAL  DEFAULT    2 _RNvMNtNtCs3i3vE8eoeEl_4core3ptr9const_ptrPNtNtCs19MhURV36j2_4emkk9processes18ApplicationComplex7is_nullBI_
   301: ffff800000016800    26 FUNC    LOCAL  DEFAULT    2 _RNvMNtNtCs3i3vE8eoeEl_4core3ptr7mut_ptrONtNtCs19MhURV36j2_4emkk9processes19IpiDescriptorPacket7is_nullBG_
   302: ffff8000000168a0    26 FUNC    LOCAL  DEFAULT    2 _RNvMNtNtCs3i3vE8eoeEl_4core3ptr9const_ptrPNtNtCs19MhURV36j2_4emkk9processes19IpiDescriptorPacket7is_nullBI_
   303: ffff800000016860    26 FUNC    LOCAL  DEFAULT    2 _RNvMNtNtCs3i3vE8eoeEl_4core3ptr7mut_ptrONtNtCs19MhURV36j2_4emkk9processes20ApplicationRegisters7is_nullBG_
   304: ffff8000000168c0    26 FUNC    LOCAL  DEFAULT    2 _RNvMNtNtCs3i3vE8eoeEl_4core3ptr9const_ptrPNtNtCs19MhURV36j2_4emkk9processes20ApplicationRegisters7is_nullBI_
   305: ffff800000016760    52 FUNC    LOCAL  HIDDEN     2 _RNvMNtNtCs3i3vE8eoeEl_4core3ptr7mut_ptrONtNtCs19MhURV36j2_4emkk9processes18ApplicationComplex6as_mutBG_
   306: ffff8000000167c0    52 FUNC    LOCAL  HIDDEN     2 _RNvMNtNtCs3i3vE8eoeEl_4core3ptr7mut_ptrONtNtCs19MhURV36j2_4emkk9processes19IpiDescriptorPacket6as_mutBG_
   307: ffff800000016820    52 FUNC    LOCAL  HIDDEN     2 _RNvMNtNtCs3i3vE8eoeEl_4core3ptr7mut_ptrONtNtCs19MhURV36j2_4emkk9processes20ApplicationRegisters6as_mutBG_
   308: 0000000000000000     0 FILE    LOCAL  DEFAULT  ABS 2ihgy7a7jsfo7f1n9bwau92l8
   309: ffff800000016af0    88 FUNC    LOCAL  HIDDEN     2 _RNvXs_NtNtCs19MhURV36j2_4emkk5utils6readerNtB4_14BufferedReaderNtB4_6Reader7current
   310: ffff800000016a60   138 FUNC    LOCAL  HIDDEN     2 _RNvXs_NtNtCs19MhURV36j2_4emkk5utils6readerNtB4_14BufferedReaderNtB4_6Reader4skip
   311: ffff800000016c70   166 FUNC    LOCAL  HIDDEN     2 _RNvXs_NtNtCs19MhURV36j2_4emkk5utils6readerNtB4_14BufferedReaderNtB4_6Reader7read_u8
   312: ffff800000016b50   140 FUNC    LOCAL  HIDDEN     2 _RNvXs_NtNtCs19MhURV36j2_4emkk5utils6readerNtB4_14BufferedReaderNtB4_6Reader7go_back
   313: ffff800000016910    33 FUNC    LOCAL  HIDDEN     2 _RNvMNtNtCs19MhURV36j2_4emkk5utils6readerNtB2_14BufferedReader3new
   314: ffff8000000168e0    48 FUNC    LOCAL  HIDDEN     2 _RNvMNtNtCs19MhURV36j2_4emkk5utils6readerNtB2_14BufferedReader15remaining_bytes
   315: ffff800000016940   273 FUNC    LOCAL  HIDDEN     2 _RNvXs_NtNtCs19MhURV36j2_4emkk5utils6readerNtB4_14BufferedReaderNtB4_6Reader10read_bytes
   316: ffff800000016be0   139 FUNC    LOCAL  HIDDEN     2 _RNvXs_NtNtCs19MhURV36j2_4emkk5utils6readerNtB4_14BufferedReaderNtB4_6Reader7peek_u8
   317: ffff800000016d20   166 FUNC    LOCAL  HIDDEN     2 _RNvXs_NtNtCs19MhURV36j2_4emkk5utils6readerNtB4_14BufferedReaderNtB4_6Reader8read_u16
   318: ffff800000016dd0   166 FUNC    LOCAL  HIDDEN     2 _RNvXs_NtNtCs19MhURV36j2_4emkk5utils6readerNtB4_14BufferedReaderNtB4_6Reader8read_u32
   319: ffff800000016e80   166 FUNC    LOCAL  HIDDEN     2 _RNvXs_NtNtCs19MhURV36j2_4emkk5utils6readerNtB4_14BufferedReaderNtB4_6Reader8read_u64
   320: 0000000000000000     0 FILE    LOCAL  DEFAULT  ABS 2k1r358tbq624rj9k5dtskfip
   321: ffff800000016fd0    14 FUNC    LOCAL  DEFAULT    2 _RNvXst_NtNtCs3i3vE8eoeEl_4core3ops3bitmNtB5_6BitAnd6bitandCs19MhURV36j2_4emkk
   322: ffff800000016fe0    24 FUNC    LOCAL  DEFAULT    2 _RNvXsu_NtNtCs3i3vE8eoeEl_4core3ops3bityNtB5_6BitAnd6bitandCs19MhURV36j2_4emkk
   323: ffff800000016f70    61 FUNC    LOCAL  DEFAULT    2 _RNvXsf3_NtNtCs3i3vE8eoeEl_4core3ops3bityINtB6_3ShrlE3shrCs19MhURV36j2_4emkk
   324: ffff800000016f50    27 FUNC    LOCAL  HIDDEN     2 _RNvXsR_NtNtCs3i3vE8eoeEl_4core3ops3bitRyINtB5_6BitAndyE6bitandCs19MhURV36j2_4emkk
   325: ffff800000016fb0    26 FUNC    LOCAL  HIDDEN     2 _RNvXsf4_NtNtCs3i3vE8eoeEl_4core3ops3bitRyINtB6_3ShrlE3shrCs19MhURV36j2_4emkk
   326: ffff800000016f30    25 FUNC    LOCAL  HIDDEN     2 _RNvXsO_NtNtCs3i3vE8eoeEl_4core3ops3bitRmINtB5_6BitAndmE6bitandCs19MhURV36j2_4emkk
   327: 0000000000000000     0 FILE    LOCAL  DEFAULT  ABS 2ktsof89vh2heu3b50ke22enf
   328: ffff800000017160    26 FUNC    LOCAL  DEFAULT    2 _RNvNvNtCs3i3vE8eoeEl_4core9ub_checks16maybe_is_aligned7runtimeCs19MhURV36j2_4emkk
   329: ffff800000017180     5 FUNC    LOCAL  DEFAULT    2 _RNvNvNtCs3i3vE8eoeEl_4core9ub_checks17check_language_ub7runtimeCs19MhURV36j2_4emkk
   330: ffff800000017190   199 FUNC    LOCAL  DEFAULT    2 _RNvNvNtCs3i3vE8eoeEl_4core9ub_checks23maybe_is_nonoverlapping7runtimeCs19MhURV36j2_4emkk
   331: ffff800000017020    30 FUNC    LOCAL  HIDDEN     2 _RNvNtCs3i3vE8eoeEl_4core9ub_checks17check_language_ubCs19MhURV36j2_4emkk
   332: ffff800000017000    26 FUNC    LOCAL  HIDDEN     2 _RNvNtCs3i3vE8eoeEl_4core9ub_checks16maybe_is_alignedCs19MhURV36j2_4emkk
   333: ffff800000017040    76 FUNC    LOCAL  HIDDEN     2 _RNvNtCs3i3vE8eoeEl_4core9ub_checks23maybe_is_nonoverlappingCs19MhURV36j2_4emkk
   334: ffff800000017090   111 FUNC    LOCAL  HIDDEN     2 _RNvNtCs3i3vE8eoeEl_4core9ub_checks24is_valid_allocation_sizeCs19MhURV36j2_4emkk
   335: ffff800000017100    93 FUNC    LOCAL  HIDDEN     2 _RNvNtCs3i3vE8eoeEl_4core9ub_checks29maybe_is_aligned_and_not_nullCs19MhURV36j2_4emkk
   336: 0000000000000000     0 FILE    LOCAL  DEFAULT  ABS 2ua9oawuct5z6bus4pxqsuglg
   337: ffff800000017260    47 FUNC    LOCAL  HIDDEN     2 _RNvXs1_NtNtCs3i3vE8eoeEl_4core5panic10panic_infoNtB5_12PanicMessageNtNtB9_3fmt7Display3fmtCs19MhURV36j2_4emkk
   338: 0000000000000000     0 FILE    LOCAL  DEFAULT  ABS 2vpq9vnl45zm0km6na7t8vcoz
   339: ffff8000000172d0    26 FUNC    LOCAL  DEFAULT    2 _RNvMNtNtCs3i3vE8eoeEl_4core3ptr7mut_ptrONtNtNtNtCs19MhURV36j2_4emkk7drivers3usb17standard_requests24UsbStandardDeviceRequest7is_nullBK_
   340: ffff800000017510    26 FUNC    LOCAL  DEFAULT    2 _RNvMNtNtCs3i3vE8eoeEl_4core3ptr9const_ptrPNtNtNtNtCs19MhURV36j2_4emkk7drivers3usb17standard_requests24UsbStandardDeviceRequest7is_nullBM_
   341: ffff800000017370    26 FUNC    LOCAL  DEFAULT    2 _RNvMNtNtCs3i3vE8eoeEl_4core3ptr7mut_ptrONtNtNtNtCs19MhURV36j2_4emkk7drivers3usb17standard_requests6UsbHID7is_nullBK_
   342: ffff800000017590    26 FUNC    LOCAL  DEFAULT    2 _RNvMNtNtCs3i3vE8eoeEl_4core3ptr9const_ptrPNtNtNtNtCs19MhURV36j2_4emkk7drivers3usb17standard_requests6UsbHID7is_nullBM_
   343: ffff8000000173d0    26 FUNC    LOCAL  DEFAULT    2 _RNvMNtNtCs3i3vE8eoeEl_4core3ptr9const_ptrPNtNtNtNtCs19MhURV36j2_4emkk7drivers3usb17standard_requests16UsbHIDDescriptor7is_nullBM_
   344: ffff800000017430    26 FUNC    LOCAL  DEFAULT    2 _RNvMNtNtCs3i3vE8eoeEl_4core3ptr9const_ptrPNtNtNtNtCs19MhURV36j2_4emkk7drivers3usb17standard_requests19UsbDeviceDescriptor7is_nullBM_
   345: ffff800000017490    26 FUNC    LOCAL  DEFAULT    2 _RNvMNtNtCs3i3vE8eoeEl_4core3ptr9const_ptrPNtNtNtNtCs19MhURV36j2_4emkk7drivers3usb17standard_requests21UsbEndpointDescriptor7is_nullBM_
   346: ffff8000000174f0    26 FUNC    LOCAL  DEFAULT    2 _RNvMNtNtCs3i3vE8eoeEl_4core3ptr9const_ptrPNtNtNtNtCs19MhURV36j2_4emkk7drivers3usb17standard_requests22UsbInterfaceDescriptor7is_nullBM_
   347: ffff800000017570    26 FUNC    LOCAL  DEFAULT    2 _RNvMNtNtCs3i3vE8eoeEl_4core3ptr9const_ptrPNtNtNtNtCs19MhURV36j2_4emkk7drivers3usb17standard_requests26UsbConfigurationDescriptor7is_nullBM_
   348: ffff8000000173f0    52 FUNC    LOCAL  HIDDEN     2 _RNvMNtNtCs3i3vE8eoeEl_4core3ptr9const_ptrPNtNtNtNtCs19MhURV36j2_4emkk7drivers3usb17standard_requests19UsbDeviceDescriptor6as_refBM_
   349: ffff800000017530    52 FUNC    LOCAL  HIDDEN     2 _RNvMNtNtCs3i3vE8eoeEl_4core3ptr9const_ptrPNtNtNtNtCs19MhURV36j2_4emkk7drivers3usb17standard_requests26UsbConfigurationDescriptor6as_refBM_
   350: ffff800000017290    52 FUNC    LOCAL  HIDDEN     2 _RNvMNtNtCs3i3vE8eoeEl_4core3ptr7mut_ptrONtNtNtNtCs19MhURV36j2_4emkk7drivers3usb17standard_requests24UsbStandardDeviceRequest6as_mutBK_
   351: ffff8000000172f0    52 FUNC    LOCAL  HIDDEN     2 _RNvMNtNtCs3i3vE8eoeEl_4core3ptr7mut_ptrONtNtNtNtCs19MhURV36j2_4emkk7drivers3usb17standard_requests6UsbHID6as_mutBK_
   352: ffff800000017330    52 FUNC    LOCAL  HIDDEN     2 _RNvMNtNtCs3i3vE8eoeEl_4core3ptr7mut_ptrONtNtNtNtCs19MhURV36j2_4emkk7drivers3usb17standard_requests6UsbHID6as_refBK_
   353: ffff800000017390    52 FUNC    LOCAL  HIDDEN     2 _RNvMNtNtCs3i3vE8eoeEl_4core3ptr9const_ptrPNtNtNtNtCs19MhURV36j2_4emkk7drivers3usb17standard_requests16UsbHIDDescriptor6as_refBM_
   354: ffff800000017450    52 FUNC    LOCAL  HIDDEN     2 _RNvMNtNtCs3i3vE8eoeEl_4core3ptr9const_ptrPNtNtNtNtCs19MhURV36j2_4emkk7drivers3usb17standard_requests21UsbEndpointDescriptor6as_refBM_
   355: ffff8000000174b0    52 FUNC    LOCAL  HIDDEN     2 _RNvMNtNtCs3i3vE8eoeEl_4core3ptr9const_ptrPNtNtNtNtCs19MhURV36j2_4emkk7drivers3usb17standard_requests22UsbInterfaceDescriptor6as_refBM_
   356: 0000000000000000     0 FILE    LOCAL  DEFAULT  ABS 2wa1bbj7xyb8x3soweotlsvsd
   357: ffff800000017670   111 FUNC    LOCAL  DEFAULT    2 _RNvMs0_NtNtCs19MhURV36j2_4emkk5utils5queueINtB5_5QueueNtNtNtNtNtB9_7drivers3usb4ehci15data_structures9QueueHeadE14get_at_dequeueB9_
   358: ffff8000000176e0   111 FUNC    LOCAL  DEFAULT    2 _RNvMs0_NtNtCs19MhURV36j2_4emkk5utils5queueINtB5_5QueueNtNtNtNtNtB9_7drivers3usb4ehci15data_structures9QueueHeadE14get_at_enqueueB9_
   359: ffff8000000175b0    11 FUNC    LOCAL  HIDDEN     2 _RNvMs0_NtNtCs19MhURV36j2_4emkk5utils5queueINtB5_5QueueNtNtNtNtNtB9_7drivers3usb4ehci15data_structures9QueueHeadE12num_occupiedB9_
   360: ffff8000000175c0   168 FUNC    LOCAL  HIDDEN     2 _RNvMs0_NtNtCs19MhURV36j2_4emkk5utils5queueINtB5_5QueueNtNtNtNtNtB9_7drivers3usb4ehci15data_structures9QueueHeadE14dequeue_silentB9_
   361: ffff800000017750   434 FUNC    LOCAL  HIDDEN     2 _RNvMs0_NtNtCs19MhURV36j2_4emkk5utils5queueINtB5_5QueueNtNtNtNtNtB9_7drivers3usb4ehci15data_structures9QueueHeadE3newB9_
   362: ffff800000017910   274 FUNC    LOCAL  HIDDEN     2 _RNvMs0_NtNtCs19MhURV36j2_4emkk5utils5queueINtB5_5QueueNtNtNtNtNtB9_7drivers3usb4ehci15data_structures9QueueHeadE7dequeueB9_
   363: ffff800000017a30   273 FUNC    LOCAL  HIDDEN     2 _RNvMs0_NtNtCs19MhURV36j2_4emkk5utils5queueINtB5_5QueueNtNtNtNtNtB9_7drivers3usb4ehci15data_structures9QueueHeadE7enqueueB9_
   364: 0000000000000000     0 FILE    LOCAL  DEFAULT  ABS 3ablhr6ypztxaik9h04kor28a
   365: ffff800000017b50   117 FUNC    LOCAL  HIDDEN     2 _RNvMNtNtCs3i3vE8eoeEl_4core3ptr9const_ptrPNtNtB6_3ffi6c_void11offset_fromCs19MhURV36j2_4emkk
   366: 0000000000000000     0 FILE    LOCAL  DEFAULT  ABS 3ag8w8xwpefo23hn3i6mycphq
   367: ffff800000017bd0   202 FUNC    LOCAL  HIDDEN     2 _RNvMNtNtCs19MhURV36j2_4emkk14multithreading10processorsNtB2_9Processor11install_isr
   368: ffff800000017d10    74 FUNC    LOCAL  HIDDEN     2 _RNvMNtNtCs19MhURV36j2_4emkk14multithreading10processorsNtB2_9Processor18request_isr_vector
   369: ffff8000000187c0    10 FUNC    LOCAL  HIDDEN     2 _RNvMNtNtCs19MhURV36j2_4emkk14multithreading10processorsNtB2_9Processor9get_lapic
   370: ffff800000017ca0    77 FUNC    LOCAL  HIDDEN     2 _RNvMNtNtCs19MhURV36j2_4emkk14multithreading10processorsNtB2_9Processor13ref_mut_pager
   371: ffff800000017cf0     5 FUNC    LOCAL  HIDDEN     2 _RNvMNtNtCs19MhURV36j2_4emkk14multithreading10processorsNtB2_9Processor14halt_processor
   372: ffff800000017d00    10 FUNC    LOCAL  HIDDEN     2 _RNvMNtNtCs19MhURV36j2_4emkk14multithreading10processorsNtB2_9Processor17get_activation_id
   373: ffff800000017d60  2651 FUNC    LOCAL  HIDDEN     2 _RNvMNtNtCs19MhURV36j2_4emkk14multithreading10processorsNtB2_9Processor3new
   374: 0000000000000000     0 FILE    LOCAL  DEFAULT  ABS 3b8gqb0ad2ywfb6p82dd5990p
   375: ffff800000018a20    37 FUNC    LOCAL  DEFAULT    2 _RNvXs0_NtNtCs19MhURV36j2_4emkk3pfs3gptNtB5_9GptHeaderNtNtCs3i3vE8eoeEl_4core5clone5Clone5cloneB9_
   376: ffff8000000187d0   549 FUNC    LOCAL  HIDDEN     2 _RNvMNtNtCs19MhURV36j2_4emkk3pfs3gptNtB2_3Gpt3new
   377: ffff800000018a00    24 FUNC    LOCAL  HIDDEN     2 _RNvMNtNtCs19MhURV36j2_4emkk3pfs3gptNtB2_3Gpt7release
   378: 0000000000000000     0 FILE    LOCAL  DEFAULT  ABS 3casz3hblwv2eponoyusa7lfj
   379: ffff800000018a90    26 FUNC    LOCAL  DEFAULT    2 _RNvMNtNtCs3i3vE8eoeEl_4core3ptr7mut_ptrONtNtNtNtCs19MhURV36j2_4emkk7drivers4disk10nvme_queue9NVMeQueue7is_nullBK_
   380: ffff800000018ab0    26 FUNC    LOCAL  DEFAULT    2 _RNvMNtNtCs3i3vE8eoeEl_4core3ptr9const_ptrPNtNtNtNtCs19MhURV36j2_4emkk7drivers4disk10nvme_queue9NVMeQueue7is_nullBM_
   381: ffff800000018a50    52 FUNC    LOCAL  HIDDEN     2 _RNvMNtNtCs3i3vE8eoeEl_4core3ptr7mut_ptrONtNtNtNtCs19MhURV36j2_4emkk7drivers4disk10nvme_queue9NVMeQueue6as_mutBK_
   382: 0000000000000000     0 FILE    LOCAL  DEFAULT  ABS 3dolh0ez12yewq4psqq9fr1xr
   383: ffff800000018ae0   511 FUNC    LOCAL  DEFAULT    2 _RNvMs_NtNtNtNtCs19MhURV36j2_4emkk7drivers3usb4ehci20configuration_parserNtB4_23EhciDeviceConfiguration25handle_special_descriptor
   384: ffff8000000195f0    11 FUNC    LOCAL  HIDDEN     2 _RNvXNtNtNtNtCs19MhURV36j2_4emkk7drivers3usb4ehci20configuration_parserNtB2_23EhciDeviceConfigurationNtNtB6_6traits16UsbConfiguration19get_interface_count
   385: ffff800000019450   252 FUNC    LOCAL  HIDDEN     2 _RNvXNtNtNtNtCs19MhURV36j2_4emkk7drivers3usb4ehci20configuration_parserNtB2_23EhciDeviceConfigurationNtNtB6_6traits16UsbConfiguration13get_interface
   386: ffff800000019550   149 FUNC    LOCAL  HIDDEN     2 _RNvXNtNtNtNtCs19MhURV36j2_4emkk7drivers3usb4ehci20configuration_parserNtB2_23EhciDeviceConfigurationNtNtB6_6traits16UsbConfiguration17get_hid_interface
   387: ffff800000018ad0    10 FUNC    LOCAL  HIDDEN     2 _RNvMs_NtNtNtNtCs19MhURV36j2_4emkk7drivers3usb4ehci20configuration_parserNtB4_23EhciDeviceConfiguration14get_interfaces
   388: ffff800000018ce0  1900 FUNC    LOCAL  HIDDEN     2 _RNvMs_NtNtNtNtCs19MhURV36j2_4emkk7drivers3usb4ehci20configuration_parserNtB4_23EhciDeviceConfiguration3new
   389: 0000000000000000     0 FILE    LOCAL  DEFAULT  ABS 3hc17mg99j5osz1qr3uxn3iti
   390: ffff800000019600    47 FUNC    LOCAL  HIDDEN     2 _RNvMs0_NtNtNtCs19MhURV36j2_4emkk7drivers3usb11independentNtB5_20UsbDeviceInformation5empty
   391: ffff800000019630   108 FUNC    LOCAL  HIDDEN     2 _RNvMs2_NtNtNtCs19MhURV36j2_4emkk7drivers3usb11independentNtB5_15UsbTransferType7from_u8
   392: ffff8000000196a0    40 FUNC    LOCAL  HIDDEN     2 _RNvMs_NtNtNtCs19MhURV36j2_4emkk7drivers3usb11independentNtB4_9Direction9from_bool
   393: 0000000000000000     0 FILE    LOCAL  DEFAULT  ABS 3qkz4aa2ll9w7ilxflfegzi4c
   394: ffff800000019710    26 FUNC    LOCAL  DEFAULT    2 _RNvMNtNtCs3i3vE8eoeEl_4core3ptr9const_ptrPNtNtNtNtNtNtCs19MhURV36j2_4emkk7drivers3usb4ehci10structures9interface13EhciInterface7is_nullBQ_
   395: ffff8000000196d0    52 FUNC    LOCAL  HIDDEN     2 _RNvMNtNtCs3i3vE8eoeEl_4core3ptr9const_ptrPNtNtNtNtNtNtCs19MhURV36j2_4emkk7drivers3usb4ehci10structures9interface13EhciInterface6as_refBQ_
   396: 0000000000000000     0 FILE    LOCAL  DEFAULT  ABS 3ran4deqpzqo1hm9ydvqv5fqk
   397: ffff800000019790    21 FUNC    LOCAL  HIDDEN     2 _RNvMNtNtNtCs19MhURV36j2_4emkk3vfs3gfs4linkNtB2_7GfsLink9link_type
   398: ffff800000019770    20 FUNC    LOCAL  HIDDEN     2 _RNvMNtNtNtCs19MhURV36j2_4emkk3vfs3gfs4linkNtB2_7GfsLink5index
   399: ffff800000019730    54 FUNC    LOCAL  HIDDEN     2 _RNvMNtNtNtCs19MhURV36j2_4emkk3vfs3gfs4linkNtB2_7GfsLink3new
   400: ffff8000000197b0    10 FUNC    LOCAL  HIDDEN     2 _RNvXs0_NtNtNtCs19MhURV36j2_4emkk3vfs3gfs4linkNtB5_7GfsLinkNtNtCs3i3vE8eoeEl_4core5clone5Clone5cloneBb_
   401: 0000000000000000     0 FILE    LOCAL  DEFAULT  ABS 3rvofafvcj8ir8uu3dne3becc
   402: ffff8000000197c0    77 FUNC    LOCAL  HIDDEN     2 _RNvXsB_NtNtCs3i3vE8eoeEl_4core4iter5rangemNtB5_4Step17forward_uncheckedCs19MhURV36j2_4emkk
   403: ffff800000019810    39 FUNC    LOCAL  HIDDEN     2 _RNvXsC_NtNtCs3i3vE8eoeEl_4core4iter5rangelNtB5_4Step17forward_uncheckedCs19MhURV36j2_4emkk
   404: ffff800000019840    85 FUNC    LOCAL  HIDDEN     2 _RNvXsD_NtNtCs3i3vE8eoeEl_4core4iter5rangeyNtB5_4Step17forward_uncheckedCs19MhURV36j2_4emkk
   405: ffff8000000198a0    87 FUNC    LOCAL  HIDDEN     2 _RNvXsx_NtNtCs3i3vE8eoeEl_4core4iter5rangehNtB5_4Step17forward_uncheckedCs19MhURV36j2_4emkk
   406: 0000000000000000     0 FILE    LOCAL  DEFAULT  ABS 3xos0lq0rijwq27jqye6200an
   407: ffff800000019900    10 FUNC    LOCAL  HIDDEN     2 _RNvMs4_NtNtCs3i3vE8eoeEl_4core5panic8locationNtB5_8Location4lineCs19MhURV36j2_4emkk
   408: ffff800000019910    10 FUNC    LOCAL  HIDDEN     2 _RNvMs4_NtNtCs3i3vE8eoeEl_4core5panic8locationNtB5_8Location6columnCs19MhURV36j2_4emkk
   409: 0000000000000000     0 FILE    LOCAL  DEFAULT  ABS 4233w2fig924it166hexw4hka
   410: ffff8000000199e0    61 FUNC    LOCAL  DEFAULT    2 _RNvNvMNtNtCs3i3vE8eoeEl_4core3ptr9const_ptrPp3add18runtime_add_nowrapCs19MhURV36j2_4emkk
   411: ffff800000019ae0   216 FUNC    LOCAL  DEFAULT    2 _RNvNvNvMNtNtCs3i3vE8eoeEl_4core3ptr9const_ptrPp3add18runtime_add_nowrap7runtimeCs19MhURV36j2_4emkk
   412: ffff800000019a80    61 FUNC    LOCAL  DEFAULT    2 _RNvNvMNtNtCs3i3vE8eoeEl_4core3ptr9const_ptrPp3sub18runtime_sub_nowrapCs19MhURV36j2_4emkk
   413: ffff800000019bc0   163 FUNC    LOCAL  DEFAULT    2 _RNvNvNvMNtNtCs3i3vE8eoeEl_4core3ptr9const_ptrPp3sub18runtime_sub_nowrap7runtimeCs19MhURV36j2_4emkk
   414: ffff800000019ac0    32 FUNC    LOCAL  HIDDEN     2 _RNvNvMNtNtCs3i3vE8eoeEl_4core3ptr9const_ptrPp7is_null7runtimeCs19MhURV36j2_4emkk
   415: ffff800000019980    94 FUNC    LOCAL  HIDDEN     2 _RNvNvMNtNtCs3i3vE8eoeEl_4core3ptr9const_ptrPp3add18precondition_checkCs19MhURV36j2_4emkk
   416: ffff800000019a20    94 FUNC    LOCAL  HIDDEN     2 _RNvNvMNtNtCs3i3vE8eoeEl_4core3ptr9const_ptrPp3sub18precondition_checkCs19MhURV36j2_4emkk
   417: ffff800000019920    87 FUNC    LOCAL  HIDDEN     2 _RNvNvMNtNtCs3i3vE8eoeEl_4core3ptr9const_ptrPp20offset_from_unsigned18precondition_checkCs19MhURV36j2_4emkk
   418: 0000000000000000     0 FILE    LOCAL  DEFAULT  ABS 43dv32prf9houkrdpgnzfek0p
   419: ffff80000001bf30   105 FUNC    LOCAL  DEFAULT    2 _RNvMsg_NtNtNtNtCs19MhURV36j2_4emkk7drivers3usb4ehci15data_structuresNtB5_15EhciCommonType08from_raw
   420: ffff80000001bfa0    93 FUNC    LOCAL  DEFAULT    2 _RNvMsh_NtNtNtNtCs19MhURV36j2_4emkk7drivers3usb4ehci15data_structuresNtB5_23FrameListElementPointer8from_raw
   421: ffff800000019c70    76 FUNC    LOCAL  HIDDEN     2 _RNvMNtNtNtNtCs19MhURV36j2_4emkk7drivers3usb4ehci15data_structuresNtB2_13EndpointSpeed6as_u32
   422: ffff800000019cc0  5424 FUNC    LOCAL  HIDDEN     2 _RNvMs3_NtNtNtNtCs19MhURV36j2_4emkk7drivers3usb4ehci15data_structuresNtB5_9QueueHead21high_speed_initialize
   423: ffff80000001b1f0    76 FUNC    LOCAL  HIDDEN     2 _RNvMs_NtNtNtNtCs19MhURV36j2_4emkk7drivers3usb4ehci15data_structuresNtB4_4Mult6as_u32
   424: ffff80000001bed0    85 FUNC    LOCAL  HIDDEN     2 _RNvMsg_NtNtNtNtCs19MhURV36j2_4emkk7drivers3usb4ehci15data_structuresNtB5_15EhciCommonType06as_u32
   425: ffff80000001b240    10 FUNC    LOCAL  HIDDEN     2 _RNvMsa_NtNtNtNtCs19MhURV36j2_4emkk7drivers3usb4ehci15data_structuresNtB5_10qTDPointer3new
   426: ffff80000001b9c0    10 FUNC    LOCAL  HIDDEN     2 _RNvMsc_NtNtNtNtCs19MhURV36j2_4emkk7drivers3usb4ehci15data_structuresNtB5_30QueueElementTransferDescriptor11get_address
   427: ffff80000001b250    38 FUNC    LOCAL  HIDDEN     2 _RNvMsb_NtNtNtNtCs19MhURV36j2_4emkk7drivers3usb4ehci15data_structuresNtB5_7PidCode15inout_from_bool
   428: ffff80000001b280    76 FUNC    LOCAL  HIDDEN     2 _RNvMsb_NtNtNtNtCs19MhURV36j2_4emkk7drivers3usb4ehci15data_structuresNtB5_7PidCode6as_u32
   429: ffff80000001b2d0  1765 FUNC    LOCAL  HIDDEN     2 _RNvMsc_NtNtNtNtCs19MhURV36j2_4emkk7drivers3usb4ehci15data_structuresNtB5_30QueueElementTransferDescriptor10initialize
   430: ffff80000001b9d0  1276 FUNC    LOCAL  HIDDEN     2 _RNvMsc_NtNtNtNtCs19MhURV36j2_4emkk7drivers3usb4ehci15data_structuresNtB5_30QueueElementTransferDescriptor5reset
   431: ffff80000001c000   206 FUNC    LOCAL  HIDDEN     2 _RNvMsk_NtNtNtNtCs19MhURV36j2_4emkk7drivers3usb4ehci15data_structuresNtB5_17PeriodicFrameList11get_element
   432: ffff80000001c0d0   237 FUNC    LOCAL  HIDDEN     2 _RNvMsk_NtNtNtNtCs19MhURV36j2_4emkk7drivers3usb4ehci15data_structuresNtB5_17PeriodicFrameList11set_element
   433: ffff80000001c1c0   224 FUNC    LOCAL  HIDDEN     2 _RNvMsk_NtNtNtNtCs19MhURV36j2_4emkk7drivers3usb4ehci15data_structuresNtB5_17PeriodicFrameList3new
   434: ffff80000001c2a0  1315 FUNC    LOCAL  HIDDEN     2 _RNvMsk_NtNtNtNtCs19MhURV36j2_4emkk7drivers3usb4ehci15data_structuresNtB5_17PeriodicFrameList3set
   435: ffff80000001c7d0   240 FUNC    LOCAL  HIDDEN     2 _RNvMsn_NtNtNtNtCs19MhURV36j2_4emkk7drivers3usb4ehci15data_structuresNtB5_16AsynchronousList16address_of_index
   436: ffff80000001c8c0  3856 FUNC    LOCAL  HIDDEN     2 _RNvMsn_NtNtNtNtCs19MhURV36j2_4emkk7drivers3usb4ehci15data_structuresNtB5_16AsynchronousList3new
   437: ffff80000001d7d0   192 FUNC    LOCAL  HIDDEN     2 _RNvMsn_NtNtNtNtCs19MhURV36j2_4emkk7drivers3usb4ehci15data_structuresNtB5_16AsynchronousList3set
   438: ffff80000001d890    10 FUNC    LOCAL  HIDDEN     2 _RNvXss_NtNtNtNtCs19MhURV36j2_4emkk7drivers3usb4ehci15data_structuresNtB5_9QueueHeadNtNtCs3i3vE8eoeEl_4core5clone5Clone5cloneBd_
   439: 0000000000000000     0 FILE    LOCAL  DEFAULT  ABS 45gcwsa3l700o0wde3lfuaxp1
   440: ffff80000001d8a0   132 FUNC    LOCAL  HIDDEN     2 _RNvNtCs19MhURV36j2_4emkk5utils12to_lowercase
   441: ffff80000001d930   245 FUNC    LOCAL  HIDDEN     2 _RNvNtCs19MhURV36j2_4emkk5utils24c_style_length_check_u32
   442: ffff80000001da30   246 FUNC    LOCAL  HIDDEN     2 _RNvNtCs19MhURV36j2_4emkk5utils24c_style_length_check_u64
   443: ffff80000001db30   232 FUNC    LOCAL  HIDDEN     2 _RNvNtCs19MhURV36j2_4emkk5utils31unchecked_construct_utf8_string
   444: ffff80000001dc20    89 FUNC    LOCAL  HIDDEN     2 _RNvNtCs19MhURV36j2_4emkk5utils5cpuid
   445: 0000000000000000     0 FILE    LOCAL  DEFAULT  ABS 45u9z7dk5ce3aw4or9mqghkw8
   446: ffff80000001e0a0    14 FUNC    LOCAL  HIDDEN     2 _RNvXs_NtNtCs3i3vE8eoeEl_4core3str7patternNtB4_12CharSearcherNtB4_8Searcher8haystackCs19MhURV36j2_4emkk
   447: ffff80000001dd70   804 FUNC    LOCAL  HIDDEN     2 _RNvXs_NtNtCs3i3vE8eoeEl_4core3str7patternNtB4_12CharSearcherNtB4_8Searcher10next_matchCs19MhURV36j2_4emkk
   448: ffff80000001dc80   231 FUNC    LOCAL  HIDDEN     2 _RNvXs2_NtNtCs3i3vE8eoeEl_4core3str7patterncNtB5_7Pattern13into_searcherCs19MhURV36j2_4emkk
   449: ffff80000001e0b0    82 FUNC    LOCAL  HIDDEN     2 _RNvXst_NtNtCs3i3vE8eoeEl_4core3str7patternReNtB5_7Pattern12is_suffix_ofCs19MhURV36j2_4emkk
   450: 0000000000000000     0 FILE    LOCAL  DEFAULT  ABS 4ibnwlu23j3mt86p0c6cy0tup
   451: ffff80000001e110   145 FUNC    LOCAL  HIDDEN     2 _RNvNvNtNtCs3i3vE8eoeEl_4core5slice3raw14from_raw_parts18precondition_checkCs19MhURV36j2_4emkk
   452: ffff80000001e1b0   145 FUNC    LOCAL  HIDDEN     2 _RNvNvNtNtCs3i3vE8eoeEl_4core5slice3raw18from_raw_parts_mut18precondition_checkCs19MhURV36j2_4emkk
   453: 0000000000000000     0 FILE    LOCAL  DEFAULT  ABS 4mmwe84irrjupmd7yshme6wpw
   454: ffff80000001e2d0    26 FUNC    LOCAL  DEFAULT    2 _RNvMNtNtCs3i3vE8eoeEl_4core3ptr7mut_ptrONtNtNtNtNtNtCs19MhURV36j2_4emkk7drivers3usb4ehci10structures6device10EhciDevice7is_nullBO_
   455: ffff80000001e2f0    26 FUNC    LOCAL  DEFAULT    2 _RNvMNtNtCs3i3vE8eoeEl_4core3ptr9const_ptrPNtNtNtNtNtNtCs19MhURV36j2_4emkk7drivers3usb4ehci10structures6device10EhciDevice7is_nullBQ_
   456: ffff80000001e250    52 FUNC    LOCAL  HIDDEN     2 _RNvMNtNtCs3i3vE8eoeEl_4core3ptr7mut_ptrONtNtNtNtNtNtCs19MhURV36j2_4emkk7drivers3usb4ehci10structures6device10EhciDevice6as_mutBO_
   457: ffff80000001e290    52 FUNC    LOCAL  HIDDEN     2 _RNvMNtNtCs3i3vE8eoeEl_4core3ptr7mut_ptrONtNtNtNtNtNtCs19MhURV36j2_4emkk7drivers3usb4ehci10structures6device10EhciDevice6as_refBO_
   458: 0000000000000000     0 FILE    LOCAL  DEFAULT  ABS 4npjjn3w7mztb0lex2jtpdijb
   459: ffff80000001f430    52 FUNC    LOCAL  DEFAULT    2 _RNvMNtNtCs3i3vE8eoeEl_4core3ptr9const_ptrPNtNtCs19MhURV36j2_4emkk3aml5Scope6as_refBI_
   460: ffff80000001f510    52 FUNC    LOCAL  DEFAULT    2 _RNvMNtNtCs3i3vE8eoeEl_4core3ptr9const_ptrPNtNtCs19MhURV36j2_4emkk3aml9Processor6as_refBI_
   461: ffff80000001f490    52 FUNC    LOCAL  DEFAULT    2 _RNvMNtNtCs3i3vE8eoeEl_4core3ptr9const_ptrPNtNtCs19MhURV36j2_4emkk3aml6Device6as_refBI_
   462: ffff80000001f3d0    52 FUNC    LOCAL  DEFAULT    2 _RNvMNtNtCs3i3vE8eoeEl_4core3ptr9const_ptrPNtNtCs19MhURV36j2_4emkk3aml5Field6as_refBI_
   463: ffff80000001f150    26 FUNC    LOCAL  DEFAULT    2 _RNvMNtNtCs3i3vE8eoeEl_4core3ptr7mut_ptrONtNtCs19MhURV36j2_4emkk3aml14AmlMethodFrame7is_nullBG_
   464: ffff80000001f3b0    26 FUNC    LOCAL  DEFAULT    2 _RNvMNtNtCs3i3vE8eoeEl_4core3ptr9const_ptrPNtNtCs19MhURV36j2_4emkk3aml14AmlMethodFrame7is_nullBI_
   465: ffff80000001f1f0    26 FUNC    LOCAL  DEFAULT    2 _RNvMNtNtCs3i3vE8eoeEl_4core3ptr7mut_ptrONtNtCs19MhURV36j2_4emkk3aml5Scope7is_nullBG_
   466: ffff80000001f470    26 FUNC    LOCAL  DEFAULT    2 _RNvMNtNtCs3i3vE8eoeEl_4core3ptr9const_ptrPNtNtCs19MhURV36j2_4emkk3aml5Scope7is_nullBI_
   467: ffff80000001f290    26 FUNC    LOCAL  DEFAULT    2 _RNvMNtNtCs3i3vE8eoeEl_4core3ptr7mut_ptrONtNtCs19MhURV36j2_4emkk3aml6Device7is_nullBG_
   468: ffff80000001f4d0    26 FUNC    LOCAL  DEFAULT    2 _RNvMNtNtCs3i3vE8eoeEl_4core3ptr9const_ptrPNtNtCs19MhURV36j2_4emkk3aml6Device7is_nullBI_
   469: ffff80000001f2f0    26 FUNC    LOCAL  DEFAULT    2 _RNvMNtNtCs3i3vE8eoeEl_4core3ptr7mut_ptrONtNtCs19MhURV36j2_4emkk3aml6Method7is_nullBG_
   470: ffff80000001f4f0    26 FUNC    LOCAL  DEFAULT    2 _RNvMNtNtCs3i3vE8eoeEl_4core3ptr9const_ptrPNtNtCs19MhURV36j2_4emkk3aml6Method7is_nullBI_
   471: ffff80000001f350    26 FUNC    LOCAL  DEFAULT    2 _RNvMNtNtCs3i3vE8eoeEl_4core3ptr7mut_ptrOTNtNtCs19MhURV36j2_4emkk3aml15OperationRegionPhE7is_nullBH_
   472: ffff80000001f5b0    26 FUNC    LOCAL  DEFAULT    2 _RNvMNtNtCs3i3vE8eoeEl_4core3ptr9const_ptrPTNtNtCs19MhURV36j2_4emkk3aml15OperationRegionPhE7is_nullBJ_
   473: ffff80000001f410    26 FUNC    LOCAL  DEFAULT    2 _RNvMNtNtCs3i3vE8eoeEl_4core3ptr9const_ptrPNtNtCs19MhURV36j2_4emkk3aml5Field7is_nullBI_
   474: ffff80000001f550    26 FUNC    LOCAL  DEFAULT    2 _RNvMNtNtCs3i3vE8eoeEl_4core3ptr9const_ptrPNtNtCs19MhURV36j2_4emkk3aml9Processor7is_nullBI_
   475: ffff80000001e310   872 FUNC    LOCAL  HIDDEN     2 _RNCNvMsb_NtCs19MhURV36j2_4emkk3amlNtB7_7AmlCode14get_name_entry0B9_
   476: ffff80000001e680   872 FUNC    LOCAL  HIDDEN     2 _RNCNvMsb_NtCs19MhURV36j2_4emkk3amlNtB7_7AmlCode14get_name_entrys0_0B9_
   477: ffff80000001e9f0   872 FUNC    LOCAL  HIDDEN     2 _RNCNvMsb_NtCs19MhURV36j2_4emkk3amlNtB7_7AmlCode14get_name_entrys_0B9_
   478: ffff80000001ed60   163 FUNC    LOCAL  HIDDEN     2 _RNCNvMsb_NtCs19MhURV36j2_4emkk3amlNtB7_7AmlCode18get_original_scope0B9_
   479: ffff80000001ee10   163 FUNC    LOCAL  HIDDEN     2 _RNCNvMsb_NtCs19MhURV36j2_4emkk3amlNtB7_7AmlCode19get_original_device0B9_
   480: ffff80000001eec0   249 FUNC    LOCAL  HIDDEN     2 _RNCNvMsb_NtCs19MhURV36j2_4emkk3amlNtB7_7AmlCode30next_extended_high_instruction0B9_
   481: ffff80000001efc0   335 FUNC    LOCAL  HIDDEN     2 _RNCNvMsb_NtCs19MhURV36j2_4emkk3amlNtB7_7AmlCode30next_extended_high_instructions_0B9_
   482: ffff80000001f570    52 FUNC    LOCAL  HIDDEN     2 _RNvMNtNtCs3i3vE8eoeEl_4core3ptr9const_ptrPTNtNtCs19MhURV36j2_4emkk3aml15OperationRegionPhE6as_refBJ_
   483: ffff80000001f110    52 FUNC    LOCAL  HIDDEN     2 _RNvMNtNtCs3i3vE8eoeEl_4core3ptr7mut_ptrONtNtCs19MhURV36j2_4emkk3aml14AmlMethodFrame6as_mutBG_
   484: ffff80000001f170    52 FUNC    LOCAL  HIDDEN     2 _RNvMNtNtCs3i3vE8eoeEl_4core3ptr7mut_ptrONtNtCs19MhURV36j2_4emkk3aml5Scope6as_mutBG_
   485: ffff80000001f1b0    52 FUNC    LOCAL  HIDDEN     2 _RNvMNtNtCs3i3vE8eoeEl_4core3ptr7mut_ptrONtNtCs19MhURV36j2_4emkk3aml5Scope6as_refBG_
   486: ffff80000001f210    52 FUNC    LOCAL  HIDDEN     2 _RNvMNtNtCs3i3vE8eoeEl_4core3ptr7mut_ptrONtNtCs19MhURV36j2_4emkk3aml6Device6as_mutBG_
   487: ffff80000001f250    52 FUNC    LOCAL  HIDDEN     2 _RNvMNtNtCs3i3vE8eoeEl_4core3ptr7mut_ptrONtNtCs19MhURV36j2_4emkk3aml6Device6as_refBG_
   488: ffff80000001f2b0    52 FUNC    LOCAL  HIDDEN     2 _RNvMNtNtCs3i3vE8eoeEl_4core3ptr7mut_ptrONtNtCs19MhURV36j2_4emkk3aml6Method6as_refBG_
   489: ffff80000001f310    52 FUNC    LOCAL  HIDDEN     2 _RNvMNtNtCs3i3vE8eoeEl_4core3ptr7mut_ptrOTNtNtCs19MhURV36j2_4emkk3aml15OperationRegionPhE6as_mutBH_
   490: ffff80000001f370    52 FUNC    LOCAL  HIDDEN     2 _RNvMNtNtCs3i3vE8eoeEl_4core3ptr9const_ptrPNtNtCs19MhURV36j2_4emkk3aml14AmlMethodFrame6as_refBI_
   491: 0000000000000000     0 FILE    LOCAL  DEFAULT  ABS 4qpskivbryt7f8rtdq2ycu2hk
   492: ffff80000001f5d0   120 FUNC    LOCAL  DEFAULT    2 _RNvMs_NtNtCs19MhURV36j2_4emkk4arch4apicNtB4_4Apic12register_gsi
   493: ffff80000001f650   290 FUNC    LOCAL  HIDDEN     2 _RNvMs_NtNtCs19MhURV36j2_4emkk4arch4apicNtB4_4Apic22write_and_register_gsi
   494: ffff80000001f780   205 FUNC    LOCAL  HIDDEN     2 _RNvMs_NtNtCs19MhURV36j2_4emkk4arch4apicNtB4_4Apic3new
   495: ffff80000001f850   234 FUNC    LOCAL  HIDDEN     2 _RNvMs_NtNtCs19MhURV36j2_4emkk4arch4apicNtB4_4Apic9write_gsi
   496: ffff80000001f940    71 FUNC    LOCAL  HIDDEN     2 _RNvXNtNtCs19MhURV36j2_4emkk4arch4apicNtB2_4ApicNtNtCs3i3vE8eoeEl_4core7default7Default7default
   497: 0000000000000000     0 FILE    LOCAL  DEFAULT  ABS 4raqni9vsp64lu81bwq0eywut
   498: ffff80000001f9d0    24 FUNC    LOCAL  HIDDEN     2 _RINvMs2_NtCs3i3vE8eoeEl_4core3fmtNtB6_9Arguments3newKj19_Kj1_ECs19MhURV36j2_4emkk
   499: ffff80000001fab0    24 FUNC    LOCAL  HIDDEN     2 _RINvMs2_NtCs3i3vE8eoeEl_4core3fmtNtB6_9Arguments3newKj23_Kj1_ECs19MhURV36j2_4emkk
   500: ffff80000001fb70    24 FUNC    LOCAL  HIDDEN     2 _RINvMs2_NtCs3i3vE8eoeEl_4core3fmtNtB6_9Arguments3newKj2c_Kj1_ECs19MhURV36j2_4emkk
   501: ffff80000001fc10    24 FUNC    LOCAL  HIDDEN     2 _RINvMs2_NtCs3i3vE8eoeEl_4core3fmtNtB6_9Arguments3newKj36_Kj1_ECs19MhURV36j2_4emkk
   502: ffff80000001faf0    24 FUNC    LOCAL  HIDDEN     2 _RINvMs2_NtCs3i3vE8eoeEl_4core3fmtNtB6_9Arguments3newKj26_Kj3_ECs19MhURV36j2_4emkk
   503: ffff80000001f9b0    24 FUNC    LOCAL  HIDDEN     2 _RINvMs2_NtCs3i3vE8eoeEl_4core3fmtNtB6_9Arguments3newKj14_Kj1_ECs19MhURV36j2_4emkk
   504: ffff80000001f9f0    24 FUNC    LOCAL  HIDDEN     2 _RINvMs2_NtCs3i3vE8eoeEl_4core3fmtNtB6_9Arguments3newKj1a_Kj1_ECs19MhURV36j2_4emkk
   505: ffff80000001f990    24 FUNC    LOCAL  HIDDEN     2 _RINvMs2_NtCs3i3vE8eoeEl_4core3fmtNtB6_9Arguments3newKj10_Kj1_ECs19MhURV36j2_4emkk
   506: ffff80000001fa10    24 FUNC    LOCAL  HIDDEN     2 _RINvMs2_NtCs3i3vE8eoeEl_4core3fmtNtB6_9Arguments3newKj1b_Kj1_ECs19MhURV36j2_4emkk
   507: ffff80000001fa30    24 FUNC    LOCAL  HIDDEN     2 _RINvMs2_NtCs3i3vE8eoeEl_4core3fmtNtB6_9Arguments3newKj1c_Kj1_ECs19MhURV36j2_4emkk
   508: ffff80000001fa50    24 FUNC    LOCAL  HIDDEN     2 _RINvMs2_NtCs3i3vE8eoeEl_4core3fmtNtB6_9Arguments3newKj1e_Kj1_ECs19MhURV36j2_4emkk
   509: ffff80000001fa70    24 FUNC    LOCAL  HIDDEN     2 _RINvMs2_NtCs3i3vE8eoeEl_4core3fmtNtB6_9Arguments3newKj21_Kj1_ECs19MhURV36j2_4emkk
   510: ffff80000001fa90    24 FUNC    LOCAL  HIDDEN     2 _RINvMs2_NtCs3i3vE8eoeEl_4core3fmtNtB6_9Arguments3newKj22_Kj1_ECs19MhURV36j2_4emkk
   511: ffff80000001fad0    24 FUNC    LOCAL  HIDDEN     2 _RINvMs2_NtCs3i3vE8eoeEl_4core3fmtNtB6_9Arguments3newKj24_Kj1_ECs19MhURV36j2_4emkk
   512: ffff80000001fb10    24 FUNC    LOCAL  HIDDEN     2 _RINvMs2_NtCs3i3vE8eoeEl_4core3fmtNtB6_9Arguments3newKj27_Kj3_ECs19MhURV36j2_4emkk
   513: ffff80000001fb30    24 FUNC    LOCAL  HIDDEN     2 _RINvMs2_NtCs3i3vE8eoeEl_4core3fmtNtB6_9Arguments3newKj28_Kj3_ECs19MhURV36j2_4emkk
   514: ffff80000001fb50    24 FUNC    LOCAL  HIDDEN     2 _RINvMs2_NtCs3i3vE8eoeEl_4core3fmtNtB6_9Arguments3newKj2b_Kj2_ECs19MhURV36j2_4emkk
   515: ffff80000001fb90    24 FUNC    LOCAL  HIDDEN     2 _RINvMs2_NtCs3i3vE8eoeEl_4core3fmtNtB6_9Arguments3newKj2e_Kj1_ECs19MhURV36j2_4emkk
   516: ffff80000001fbb0    24 FUNC    LOCAL  HIDDEN     2 _RINvMs2_NtCs3i3vE8eoeEl_4core3fmtNtB6_9Arguments3newKj2f_Kj2_ECs19MhURV36j2_4emkk
   517: ffff80000001fbd0    24 FUNC    LOCAL  HIDDEN     2 _RINvMs2_NtCs3i3vE8eoeEl_4core3fmtNtB6_9Arguments3newKj31_Kj3_ECs19MhURV36j2_4emkk
   518: ffff80000001fbf0    24 FUNC    LOCAL  HIDDEN     2 _RINvMs2_NtCs3i3vE8eoeEl_4core3fmtNtB6_9Arguments3newKj32_Kj4_ECs19MhURV36j2_4emkk
   519: ffff80000001fc30    24 FUNC    LOCAL  HIDDEN     2 _RINvMs2_NtCs3i3vE8eoeEl_4core3fmtNtB6_9Arguments3newKj38_Kj3_ECs19MhURV36j2_4emkk
   520: ffff80000001fc50    24 FUNC    LOCAL  HIDDEN     2 _RINvMs2_NtCs3i3vE8eoeEl_4core3fmtNtB6_9Arguments3newKj3a_Kj2_ECs19MhURV36j2_4emkk
   521: ffff80000001fc70    24 FUNC    LOCAL  HIDDEN     2 _RINvMs2_NtCs3i3vE8eoeEl_4core3fmtNtB6_9Arguments3newKj40_Kj3_ECs19MhURV36j2_4emkk
   522: ffff80000001fc90    29 FUNC    LOCAL  HIDDEN     2 _RNvXs1g_NtCs3i3vE8eoeEl_4core3fmtRbNtB6_5Debug3fmtCs19MhURV36j2_4emkk
   523: 0000000000000000     0 FILE    LOCAL  DEFAULT  ABS 4ru9ycr1exn6l64cxkfdngk9d
   524: ffff80000001fcb0  1369 FUNC    LOCAL  HIDDEN     2 _RNvNtNtCs19MhURV36j2_4emkk3pfs12disk_scanner10scan_disks
   525: 0000000000000000     0 FILE    LOCAL  DEFAULT  ABS 4teql3o4a5yw6woi5kkf2le3h
   526: ffff800000020210    52 FUNC    LOCAL  HIDDEN     2 _RNvMs3_NtNtCs3i3vE8eoeEl_4core3ffi5c_strNtB5_4CStr11count_bytesCs19MhURV36j2_4emkk
   527: ffff800000020250    31 FUNC    LOCAL  HIDDEN     2 _RNvMs3_NtNtCs3i3vE8eoeEl_4core3ffi5c_strNtB5_4CStr6as_ptrCs19MhURV36j2_4emkk
   528: 0000000000000000     0 FILE    LOCAL  DEFAULT  ABS 52y8wavxhzai6ow19pa21e4ov
   529: ffff800000020270    32 FUNC    LOCAL  HIDDEN     2 _RNvXs7_NtNtCs3i3vE8eoeEl_4core3cmp5implsRhNtB7_9PartialEq2neCs19MhURV36j2_4emkk
   530: 0000000000000000     0 FILE    LOCAL  DEFAULT  ABS 5380ups1cel1e2jj4se8n8v0n
   531: ffff8000000203e0    39 FUNC    LOCAL  DEFAULT    2 _RNvXNtNtNtNtNtCs19MhURV36j2_4emkk7drivers3usb4ehci10structures8endpointNtB2_23EhciEndpointInformationNtNtCs3i3vE8eoeEl_4core7default7Default7default
   532: ffff8000000202a0   179 FUNC    LOCAL  HIDDEN     2 _RNvMs0_NtNtNtNtNtCs19MhURV36j2_4emkk7drivers3usb4ehci10structures8endpointNtB5_12EhciEndpoint3new
   533: ffff800000024a20    29 FUNC    LOCAL  HIDDEN     2 _RNvXs1_NtNtNtNtNtCs19MhURV36j2_4emkk7drivers3usb4ehci10structures8endpointNtB5_12EhciEndpointNtNtBb_6traits11UsbEndpoint33get_designated_queue_head_address
   534: ffff8000000231d0  5962 FUNC    LOCAL  HIDDEN     2 _RNvXs1_NtNtNtNtNtCs19MhURV36j2_4emkk7drivers3usb4ehci10structures8endpointNtB5_12EhciEndpointNtNtBb_6traits11UsbEndpoint20control_without_data
   535: ffff800000020450 11615 FUNC    LOCAL  HIDDEN     2 _RNvXs1_NtNtNtNtNtCs19MhURV36j2_4emkk7drivers3usb4ehci10structures8endpointNtB5_12EhciEndpointNtNtBb_6traits11UsbEndpoint17control_with_data
   536: ffff800000020360   114 FUNC    LOCAL  HIDDEN     2 _RNvMs0_NtNtNtNtNtCs19MhURV36j2_4emkk7drivers3usb4ehci10structures8endpointNtB5_12EhciEndpoint8full_new
   537: ffff800000020290    14 FUNC    LOCAL  HIDDEN     2 _RNvMs0_NtNtNtNtNtCs19MhURV36j2_4emkk7drivers3usb4ehci10structures8endpointNtB5_12EhciEndpoint25get_designated_queue_head
   538: ffff800000020410    36 FUNC    LOCAL  HIDDEN     2 _RNvXs1_NtNtNtNtNtCs19MhURV36j2_4emkk7drivers3usb4ehci10structures8endpointNtB5_12EhciEndpointNtNtBb_6traits11UsbEndpoint13get_direction
   539: ffff800000020440    10 FUNC    LOCAL  HIDDEN     2 _RNvXs1_NtNtNtNtNtCs19MhURV36j2_4emkk7drivers3usb4ehci10structures8endpointNtB5_12EhciEndpointNtNtBb_6traits11UsbEndpoint15endpoint_number
   540: ffff8000000231b0    20 FUNC    LOCAL  HIDDEN     2 _RNvXs1_NtNtNtNtNtCs19MhURV36j2_4emkk7drivers3usb4ehci10structures8endpointNtB5_12EhciEndpointNtNtBb_6traits11UsbEndpoint17get_transfer_type
   541: ffff800000024920   102 FUNC    LOCAL  HIDDEN     2 _RNvXs1_NtNtNtNtNtCs19MhURV36j2_4emkk7drivers3usb4ehci10structures8endpointNtB5_12EhciEndpointNtNtBb_6traits11UsbEndpoint22set_address_and_length
   542: ffff800000024990    25 FUNC    LOCAL  HIDDEN     2 _RNvXs1_NtNtNtNtNtCs19MhURV36j2_4emkk7drivers3usb4ehci10structures8endpointNtB5_12EhciEndpointNtNtBb_6traits11UsbEndpoint22update_max_packet_size
   543: ffff8000000249b0    11 FUNC    LOCAL  HIDDEN     2 _RNvXs1_NtNtNtNtNtCs19MhURV36j2_4emkk7drivers3usb4ehci10structures8endpointNtB5_12EhciEndpointNtNtBb_6traits11UsbEndpoint23get_maximum_packet_size
   544: ffff8000000249c0    83 FUNC    LOCAL  HIDDEN     2 _RNvXs1_NtNtNtNtNtCs19MhURV36j2_4emkk7drivers3usb4ehci10structures8endpointNtB5_12EhciEndpointNtNtBb_6traits11UsbEndpoint31calculate_interval_micro_frames
   545: 0000000000000000     0 FILE    LOCAL  DEFAULT  ABS 539mfqern3y5la7ixfjkinqnx
   546: ffff800000025c60     5 FUNC    LOCAL  DEFAULT    2 _RNvXNtNtCs19MhURV36j2_4emkk3aml11path_systemNtB2_5FrameNtNtCs3i3vE8eoeEl_4core7default7Default7default
   547: ffff8000000252e0   318 FUNC    LOCAL  DEFAULT    2 _RNvMs0_NtNtCs19MhURV36j2_4emkk3aml11path_systemNtB5_10PathSystem4find
   548: ffff800000024e90   236 FUNC    LOCAL  HIDDEN     2 _RNvMs0_NtNtCs19MhURV36j2_4emkk3aml11path_systemNtB5_10PathSystem21compare_extern_single
   549: ffff800000024af0    93 FUNC    LOCAL  HIDDEN     2 _RNvMs0_NtNtCs19MhURV36j2_4emkk3aml11path_systemNtB5_10PathSystem12get_owner_of
   550: ffff800000024aa0    68 FUNC    LOCAL  HIDDEN     2 _RNvMs0_NtNtCs19MhURV36j2_4emkk3aml11path_systemNtB5_10PathSystem12current_path
   551: ffff800000025420   800 FUNC    LOCAL  HIDDEN     2 _RNvMs0_NtNtCs19MhURV36j2_4emkk3aml11path_systemNtB5_10PathSystem6append
   552: ffff800000025740   825 FUNC    LOCAL  HIDDEN     2 _RNvMs0_NtNtCs19MhURV36j2_4emkk3aml11path_systemNtB5_10PathSystem6insert
   553: ffff800000024a40    89 FUNC    LOCAL  HIDDEN     2 _RNvMs0_NtNtCs19MhURV36j2_4emkk3aml11path_systemNtB5_10PathSystem10push_frame
   554: ffff800000024e10    55 FUNC    LOCAL  HIDDEN     2 _RNvMs0_NtNtCs19MhURV36j2_4emkk3aml11path_systemNtB5_10PathSystem16push_as_appended
   555: ffff800000024e50    55 FUNC    LOCAL  HIDDEN     2 _RNvMs0_NtNtCs19MhURV36j2_4emkk3aml11path_systemNtB5_10PathSystem16push_as_inserted
   556: ffff800000025bf0   106 FUNC    LOCAL  HIDDEN     2 _RNvMs0_NtNtCs19MhURV36j2_4emkk3aml11path_systemNtB5_10PathSystem9pop_frame
   557: ffff800000024f80   857 FUNC    LOCAL  HIDDEN     2 _RNvMs0_NtNtCs19MhURV36j2_4emkk3aml11path_systemNtB5_10PathSystem3new
   558: ffff800000025c70   203 FUNC    LOCAL  HIDDEN     2 _RNvXs_NtNtCs19MhURV36j2_4emkk3aml11path_systemNtB4_10PathSystemNtNtCs3i3vE8eoeEl_4core7default7Default7default
   559: ffff800000024b50   701 FUNC    LOCAL  HIDDEN     2 _RNvMs0_NtNtCs19MhURV36j2_4emkk3aml11path_systemNtB5_10PathSystem14compare_extern
   560: ffff800000025a80   363 FUNC    LOCAL  HIDDEN     2 _RNvMs0_NtNtCs19MhURV36j2_4emkk3aml11path_systemNtB5_10PathSystem7compare
   561: 0000000000000000     0 FILE    LOCAL  DEFAULT  ABS 5eiuaaah24lr16xx4z9skvdyy
   562: ffff800000025dc0    26 FUNC    LOCAL  DEFAULT    2 _RNvMNtNtCs3i3vE8eoeEl_4core3ptr7mut_ptrONtNtNtCs19MhURV36j2_4emkk3aml11name_system5Entry7is_nullBI_
   563: ffff800000025de0    26 FUNC    LOCAL  DEFAULT    2 _RNvMNtNtCs3i3vE8eoeEl_4core3ptr9const_ptrPNtNtNtCs19MhURV36j2_4emkk3aml11name_system5Entry7is_nullBK_
   564: ffff800000025d40    52 FUNC    LOCAL  HIDDEN     2 _RNvMNtNtCs3i3vE8eoeEl_4core3ptr7mut_ptrONtNtNtCs19MhURV36j2_4emkk3aml11name_system5Entry6as_mutBI_
   565: ffff800000025d80    52 FUNC    LOCAL  HIDDEN     2 _RNvMNtNtCs3i3vE8eoeEl_4core3ptr7mut_ptrONtNtNtCs19MhURV36j2_4emkk3aml11name_system5Entry6as_refBI_
   566: 0000000000000000     0 FILE    LOCAL  DEFAULT  ABS 5me17ou0tsgkoln8cnq0i9vyn
   567: ffff800000025e40    26 FUNC    LOCAL  DEFAULT    2 _RNvMNtNtCs3i3vE8eoeEl_4core3ptr7mut_ptrONtNtNtNtCs19MhURV36j2_4emkk7drivers4disk4sata8SataDisk7is_nullBK_
   568: ffff800000025e60    26 FUNC    LOCAL  DEFAULT    2 _RNvMNtNtCs3i3vE8eoeEl_4core3ptr9const_ptrPNtNtNtNtCs19MhURV36j2_4emkk7drivers4disk4sata8SataDisk7is_nullBM_
   569: ffff800000025e00    52 FUNC    LOCAL  HIDDEN     2 _RNvMNtNtCs3i3vE8eoeEl_4core3ptr7mut_ptrONtNtNtNtCs19MhURV36j2_4emkk7drivers4disk4sata8SataDisk6as_refBK_
   570: 0000000000000000     0 FILE    LOCAL  DEFAULT  ABS 5n3u6dhdlp4cu55aus9vmay6b
   571: ffff800000025e80  2350 FUNC    LOCAL  HIDDEN     2 _RNvMs_NtNtCs19MhURV36j2_4emkk7drivers3usbNtB4_3Usb15find_hid_device
   572: ffff8000000267b0   196 FUNC    LOCAL  HIDDEN     2 _RNvMs_NtNtCs19MhURV36j2_4emkk7drivers3usbNtB4_3Usb18get_mut_controller
   573: ffff800000026880   663 FUNC    LOCAL  HIDDEN     2 _RNvMs_NtNtCs19MhURV36j2_4emkk7drivers3usbNtB4_3Usb3new
   574: ffff800000026b20     5 FUNC    LOCAL  HIDDEN     2 _RNvXNtNtCs19MhURV36j2_4emkk7drivers3usbNtB2_3UsbNtNtCs3i3vE8eoeEl_4core7default7Default7default
   575: 0000000000000000     0 FILE    LOCAL  DEFAULT  ABS 5sopubb05b9c9m2fvs54z5lq8
   576: ffff800000026b30    27 FUNC    LOCAL  HIDDEN     2 _RNvXsk_NtNtCs3i3vE8eoeEl_4core3cmp5implshNtB7_9PartialEq2neCs19MhURV36j2_4emkk
   577: 0000000000000000     0 FILE    LOCAL  DEFAULT  ABS 5yc31vyr25xx6k7p80ydvm055
   578: ffff800000026b50   151 FUNC    LOCAL  DEFAULT    2 _RNvXs_NvNtNtCs3i3vE8eoeEl_4core3fmt5Write9write_fmtQNtNtNtCs19MhURV36j2_4emkk3hal5print6ModuleNtB4_12SpecWriteFmt14spec_write_fmtBU_
   579: ffff800000026bf0    30 FUNC    LOCAL  HIDDEN     2 _RNvYNtNtNtCs19MhURV36j2_4emkk3hal5print6ModuleNtNtCs3i3vE8eoeEl_4core3fmt5Write9write_fmtB8_
   580: 0000000000000000     0 FILE    LOCAL  DEFAULT  ABS 6007vp2n1kq656e8cw51jwtwc
   581: ffff8000000a0fe0     8 OBJECT  LOCAL  DEFAULT    4 _RNvNtNtCs19MhURV36j2_4emkk3hal5print10STDCHARPUT
   582: ffff8000000b0008    24 OBJECT  LOCAL  DEFAULT    6 _RNvNtNtCs19MhURV36j2_4emkk3hal5print11SCREEN_INFO
   583: ffff8000000a0fe8     8 OBJECT  LOCAL  DEFAULT    4 _RNvNtNtCs19MhURV36j2_4emkk3hal5print9STDSTRPUT
   584: ffff8000000273f0   547 FUNC    LOCAL  DEFAULT    2 _RNvNtNtCs19MhURV36j2_4emkk3hal5print18get_pixel_location
   585: ffff8000000b0028     8 OBJECT  LOCAL  DEFAULT    6 _RNvNtNtCs19MhURV36j2_4emkk3hal5print25FRAMEBUFFER_ORIGINAL_BASE
   586: ffff8000000b0030     8 OBJECT  LOCAL  DEFAULT    6 _RNvNtNtCs19MhURV36j2_4emkk3hal5print4FONT
   587: ffff8000000b0020     8 OBJECT  LOCAL  DEFAULT    6 _RNvNtNtCs19MhURV36j2_4emkk3hal5print12PRINT_BUFFER
   588: ffff800000027620   122 FUNC    LOCAL  HIDDEN     2 _RNvNtNtCs19MhURV36j2_4emkk3hal5print19simple_kernel_panic
   589: ffff8000000271b0    36 FUNC    LOCAL  HIDDEN     2 _RNvMs2_NtNtCs19MhURV36j2_4emkk3hal5printNtB5_6Module3new
   590: ffff800000026e00   455 FUNC    LOCAL  HIDDEN     2 _RNvMs2_NtNtCs19MhURV36j2_4emkk3hal5printNtB5_6Module12success_impl
   591: ffff8000000271f0   455 FUNC    LOCAL  HIDDEN     2 _RNvMs2_NtNtCs19MhURV36j2_4emkk3hal5printNtB5_6Module9info_impl
   592: ffff800000026c30   455 FUNC    LOCAL  HIDDEN     2 _RNvMs2_NtNtCs19MhURV36j2_4emkk3hal5printNtB5_6Module10error_impl
   593: ffff800000027cd0    30 FUNC    LOCAL  HIDDEN     2 _RNvXs1_NtNtCs19MhURV36j2_4emkk3hal5printNtB5_6ModuleNtNtCs3i3vE8eoeEl_4core7default7Default7default
   594: ffff800000027910   954 FUNC    LOCAL  HIDDEN     2 _RNvNtNtCs19MhURV36j2_4emkk3hal5print27switch_framebuffer_location
   595: ffff8000000271e0    14 FUNC    LOCAL  HIDDEN     2 _RNvMs2_NtNtCs19MhURV36j2_4emkk3hal5printNtB5_6Module4name
   596: ffff800000027d80   591 FUNC    LOCAL  HIDDEN     2 _RNvXs_NtNtCs19MhURV36j2_4emkk3hal5printNtB4_6ModuleNtNtCs3i3vE8eoeEl_4core3fmt5Write9write_str
   597: ffff800000027cf0   133 FUNC    LOCAL  HIDDEN     2 _RNvXs_NtNtCs19MhURV36j2_4emkk3hal5printNtB4_6ModuleNtNtCs3i3vE8eoeEl_4core3fmt5Write10write_char
   598: ffff800000026c10    10 FUNC    LOCAL  HIDDEN     2 _RNvMNtNtCs19MhURV36j2_4emkk3hal5printNtB2_14GopFramebuffer8get_base
   599: ffff800000026c20    10 FUNC    LOCAL  HIDDEN     2 _RNvMNtNtCs19MhURV36j2_4emkk3hal5printNtB2_14GopFramebuffer8get_size
   600: ffff800000026fd0   474 FUNC    LOCAL  HIDDEN     2 _RNvMs2_NtNtCs19MhURV36j2_4emkk3hal5printNtB5_6Module12warning_impl
   601: ffff8000000273c0    46 FUNC    LOCAL  HIDDEN     2 _RNvNtNtCs19MhURV36j2_4emkk3hal5print15get_framebuffer
   602: ffff8000000276a0   615 FUNC    LOCAL  HIDDEN     2 _RNvNtNtCs19MhURV36j2_4emkk3hal5print24page_framebuffer_virtual
   603: 0000000000000000     0 FILE    LOCAL  DEFAULT  ABS 60faeh86b7kgrqkq1s8cwvf44
   604: ffff80000002b3f0    84 FUNC    LOCAL  HIDDEN     2 _RNvNtNtCs19MhURV36j2_4emkk4arch3gdt24initialize_host_core_gdt
   605: ffff80000002b1f0   499 FUNC    LOCAL  HIDDEN     2 _RNvNtNtCs19MhURV36j2_4emkk4arch3gdt18gdt_switch_address
   606: ffff8000000b4028    10 OBJECT  LOCAL  HIDDEN    10 _RNvNtNtCs19MhURV36j2_4emkk4arch3gdt24HOST_CORE_GDT_DESCRIPTOR
   607: ffff800000028970  5366 FUNC    LOCAL  HIDDEN     2 _RNvMNtNtCs19MhURV36j2_4emkk4arch3gdtNtB2_13GdtDescriptor10initialize
   608: ffff800000029e70  4978 FUNC    LOCAL  HIDDEN     2 _RNvMNtNtCs19MhURV36j2_4emkk4arch3gdtNtB2_13GdtDescriptor8standard
   609: 0000000000000000     0 FILE    LOCAL  DEFAULT  ABS 62bhy4qkk4ywbfho0nb7s8vo3
   610: ffff80000002b450    24 FUNC    LOCAL  HIDDEN     2 _RNvMNtCs3i3vE8eoeEl_4core3stre19from_utf8_uncheckedCs19MhURV36j2_4emkk
   611: ffff80000002b490    31 FUNC    LOCAL  HIDDEN     2 _RNvMNtCs3i3vE8eoeEl_4core3stre3lenCs19MhURV36j2_4emkk
   612: ffff80000002b470    24 FUNC    LOCAL  HIDDEN     2 _RNvMNtCs3i3vE8eoeEl_4core3stre23from_utf8_unchecked_mutCs19MhURV36j2_4emkk
   613: 0000000000000000     0 FILE    LOCAL  DEFAULT  ABS 66lqmfe6vtlcrz85d0zl34pmj
   614: ffff80000002b4b0   850 FUNC    LOCAL  HIDDEN     2 _RNvNtNtCs19MhURV36j2_4emkk3aml5utils13parse_termarg
   615: ffff80000002b810  1030 FUNC    LOCAL  HIDDEN     2 _RNvNtNtCs19MhURV36j2_4emkk3aml5utils15parse_supername
   616: ffff80000002bca0   293 FUNC    LOCAL  HIDDEN     2 _RNvNtNtCs19MhURV36j2_4emkk3aml5utils26unwrap_data_ref_object_int
   617: ffff80000002bc20   117 FUNC    LOCAL  HIDDEN     2 _RNvNtNtCs19MhURV36j2_4emkk3aml5utils24is_name_string_character
   618: 0000000000000000     0 FILE    LOCAL  DEFAULT  ABS 67chhqns5roodi5z1c3alevwp
   619: ffff80000002bf10   210 FUNC    LOCAL  DEFAULT    2 _RNvMs0_NtNtCs19MhURV36j2_4emkk5utils5stackINtB5_5StackNtNtB9_3aml14AmlMethodFrameE11get_mut_topB9_
   620: ffff80000002c300   210 FUNC    LOCAL  DEFAULT    2 _RNvMs0_NtNtCs19MhURV36j2_4emkk5utils5stackINtB5_5StackNtNtB9_3aml14AmlMethodFrameE7get_topB9_
   621: ffff80000002c4a0   209 FUNC    LOCAL  DEFAULT    2 _RNvMs0_NtNtCs19MhURV36j2_4emkk5utils5stackINtB5_5StackNtNtNtB9_3aml11path_system5FrameE11get_mut_topB9_
   622: ffff80000002cda0   210 FUNC    LOCAL  DEFAULT    2 _RNvMs0_NtNtCs19MhURV36j2_4emkk5utils5stackINtB5_5StackOINtNtCs3i3vE8eoeEl_4core6option6OptiontEE7get_topB9_
   623: ffff80000002cf50   210 FUNC    LOCAL  DEFAULT    2 _RNvMs0_NtNtCs19MhURV36j2_4emkk5utils5stackINtB5_5StackTNtNtB9_3aml15OperationRegionPhEE11get_mut_topB9_
   624: ffff80000002d340   210 FUNC    LOCAL  DEFAULT    2 _RNvMs0_NtNtCs19MhURV36j2_4emkk5utils5stackINtB5_5StackTNtNtB9_3aml15OperationRegionPhEE7get_topB9_
   625: ffff80000002d4e0   209 FUNC    LOCAL  DEFAULT    2 _RNvMs0_NtNtCs19MhURV36j2_4emkk5utils5stackINtB5_5StacktE11get_mut_topB9_
   626: ffff80000002d9c0   209 FUNC    LOCAL  DEFAULT    2 _RNvMs0_NtNtCs19MhURV36j2_4emkk5utils5stackINtB5_5StacktE7get_topB9_
   627: ffff80000002c440    81 FUNC    LOCAL  HIDDEN     2 _RNvMs0_NtNtCs19MhURV36j2_4emkk5utils5stackINtB5_5StackNtNtB9_3aml14AmlMethodFrameE7ref_topB9_
   628: ffff80000002c3e0    81 FUNC    LOCAL  HIDDEN     2 _RNvMs0_NtNtCs19MhURV36j2_4emkk5utils5stackINtB5_5StackNtNtB9_3aml14AmlMethodFrameE7mut_topB9_
   629: ffff80000002c1a0   352 FUNC    LOCAL  HIDDEN     2 _RNvMs0_NtNtCs19MhURV36j2_4emkk5utils5stackINtB5_5StackNtNtB9_3aml14AmlMethodFrameE4pushB9_
   630: ffff80000002bea0   110 FUNC    LOCAL  HIDDEN     2 _RNvMs0_NtNtCs19MhURV36j2_4emkk5utils5stackINtB5_5StackNtNtB9_3aml14AmlMethodFrameE10pop_silentB9_
   631: ffff80000002ce80    81 FUNC    LOCAL  HIDDEN     2 _RNvMs0_NtNtCs19MhURV36j2_4emkk5utils5stackINtB5_5StackOINtNtCs3i3vE8eoeEl_4core6option6OptiontEE7ref_topB9_
   632: ffff80000002ca80    11 FUNC    LOCAL  HIDDEN     2 _RNvMs0_NtNtCs19MhURV36j2_4emkk5utils5stackINtB5_5StackOINtNtCs3i3vE8eoeEl_4core6option6OptiontEE12num_occupiedB9_
   633: ffff80000002cc40   350 FUNC    LOCAL  HIDDEN     2 _RNvMs0_NtNtCs19MhURV36j2_4emkk5utils5stackINtB5_5StackOINtNtCs3i3vE8eoeEl_4core6option6OptiontEE4pushB9_
   634: ffff80000002d480    81 FUNC    LOCAL  HIDDEN     2 _RNvMs0_NtNtCs19MhURV36j2_4emkk5utils5stackINtB5_5StackTNtNtB9_3aml15OperationRegionPhEE7ref_topB9_
   635: ffff80000002d420    81 FUNC    LOCAL  HIDDEN     2 _RNvMs0_NtNtCs19MhURV36j2_4emkk5utils5stackINtB5_5StackTNtNtB9_3aml15OperationRegionPhEE7mut_topB9_
   636: ffff80000002cee0   110 FUNC    LOCAL  HIDDEN     2 _RNvMs0_NtNtCs19MhURV36j2_4emkk5utils5stackINtB5_5StackTNtNtB9_3aml15OperationRegionPhEE10pop_silentB9_
   637: ffff80000002ca10   110 FUNC    LOCAL  HIDDEN     2 _RNvMs0_NtNtCs19MhURV36j2_4emkk5utils5stackINtB5_5StackOINtNtCs3i3vE8eoeEl_4core6option6OptiontEE10pop_silentB9_
   638: ffff80000002d1e0   352 FUNC    LOCAL  HIDDEN     2 _RNvMs0_NtNtCs19MhURV36j2_4emkk5utils5stackINtB5_5StackTNtNtB9_3aml15OperationRegionPhEE4pushB9_
   639: ffff80000002bdd0   205 FUNC    LOCAL  HIDDEN     2 _RINvMs0_NtNtCs19MhURV36j2_4emkk5utils5stackINtB6_5StackTNtNtBa_3aml15OperationRegionPhEE8for_eachNCNvMsb_BU_NtBU_7AmlCode30next_extended_high_instructions_0EBa_
   640: ffff80000002d030   422 FUNC    LOCAL  HIDDEN     2 _RNvMs0_NtNtCs19MhURV36j2_4emkk5utils5stackINtB5_5StackTNtNtB9_3aml15OperationRegionPhEE3newB9_
   641: ffff80000002bff0   422 FUNC    LOCAL  HIDDEN     2 _RNvMs0_NtNtCs19MhURV36j2_4emkk5utils5stackINtB5_5StackNtNtB9_3aml14AmlMethodFrameE3newB9_
   642: ffff80000002ca90   422 FUNC    LOCAL  HIDDEN     2 _RNvMs0_NtNtCs19MhURV36j2_4emkk5utils5stackINtB5_5StackOINtNtCs3i3vE8eoeEl_4core6option6OptiontEE3newB9_
   643: ffff80000002db60    56 FUNC    LOCAL  HIDDEN     2 _RNvXs_NtNtCs19MhURV36j2_4emkk5utils5stackINtB4_5StackNtNtB8_3aml14AmlMethodFrameENtNtCs3i3vE8eoeEl_4core7default7Default7defaultB8_
   644: ffff80000002dc20    56 FUNC    LOCAL  HIDDEN     2 _RNvXs_NtNtCs19MhURV36j2_4emkk5utils5stackINtB4_5StackTNtNtB8_3aml15OperationRegionPhEENtNtCs3i3vE8eoeEl_4core7default7Default7defaultB8_
   645: ffff80000002dbe0    56 FUNC    LOCAL  HIDDEN     2 _RNvXs_NtNtCs19MhURV36j2_4emkk5utils5stackINtB4_5StackOINtNtCs3i3vE8eoeEl_4core6option6OptiontEENtNtBV_7default7Default7defaultB8_
   646: ffff80000002c580    11 FUNC    LOCAL  HIDDEN     2 _RNvMs0_NtNtCs19MhURV36j2_4emkk5utils5stackINtB5_5StackNtNtNtB9_3aml11path_system5FrameE12num_occupiedB9_
   647: ffff80000002c830   370 FUNC    LOCAL  HIDDEN     2 _RNvMs0_NtNtCs19MhURV36j2_4emkk5utils5stackINtB5_5StackNtNtNtB9_3aml11path_system5FrameE4pushB9_
   648: ffff80000002c9b0    81 FUNC    LOCAL  HIDDEN     2 _RNvMs0_NtNtCs19MhURV36j2_4emkk5utils5stackINtB5_5StackNtNtNtB9_3aml11path_system5FrameE7mut_topB9_
   649: ffff80000002d5c0    11 FUNC    LOCAL  HIDDEN     2 _RNvMs0_NtNtCs19MhURV36j2_4emkk5utils5stackINtB5_5StacktE12num_occupiedB9_
   650: ffff80000002db00    81 FUNC    LOCAL  HIDDEN     2 _RNvMs0_NtNtCs19MhURV36j2_4emkk5utils5stackINtB5_5StacktE7ref_topB9_
   651: ffff80000002d860   348 FUNC    LOCAL  HIDDEN     2 _RNvMs0_NtNtCs19MhURV36j2_4emkk5utils5stackINtB5_5StacktE4pushB9_
   652: ffff80000002c590   422 FUNC    LOCAL  HIDDEN     2 _RNvMs0_NtNtCs19MhURV36j2_4emkk5utils5stackINtB5_5StackNtNtNtB9_3aml11path_system5FrameE3newB9_
   653: ffff80000002d5d0   422 FUNC    LOCAL  HIDDEN     2 _RNvMs0_NtNtCs19MhURV36j2_4emkk5utils5stackINtB5_5StacktE3newB9_
   654: ffff80000002c740   230 FUNC    LOCAL  HIDDEN     2 _RNvMs0_NtNtCs19MhURV36j2_4emkk5utils5stackINtB5_5StackNtNtNtB9_3aml11path_system5FrameE3popB9_
   655: ffff80000002daa0    81 FUNC    LOCAL  HIDDEN     2 _RNvMs0_NtNtCs19MhURV36j2_4emkk5utils5stackINtB5_5StacktE7mut_topB9_
   656: ffff80000002d780   216 FUNC    LOCAL  HIDDEN     2 _RNvMs0_NtNtCs19MhURV36j2_4emkk5utils5stackINtB5_5StacktE3popB9_
   657: ffff80000002dba0    56 FUNC    LOCAL  HIDDEN     2 _RNvXs_NtNtCs19MhURV36j2_4emkk5utils5stackINtB4_5StackNtNtNtB8_3aml11path_system5FrameENtNtCs3i3vE8eoeEl_4core7default7Default7defaultB8_
   658: ffff80000002dc60    56 FUNC    LOCAL  HIDDEN     2 _RNvXs_NtNtCs19MhURV36j2_4emkk5utils5stackINtB4_5StacktENtNtCs3i3vE8eoeEl_4core7default7Default7defaultB8_
   659: 0000000000000000     0 FILE    LOCAL  DEFAULT  ABS 67k4wf0k1a74lm4ql47oyr8hu
   660: ffff80000002dca0   482 FUNC    LOCAL  DEFAULT    2 _RNvMNtCs19MhURV36j2_4emkk9processesNtB2_11Application10load_image
   661: ffff80000002de90   264 FUNC    LOCAL  DEFAULT    2 _RNvMNtCs19MhURV36j2_4emkk9processesNtB2_11Application5spawn
   662: ffff80000002dfa0   210 FUNC    LOCAL  DEFAULT    2 _RNvMNtCs19MhURV36j2_4emkk9processesNtB2_11Application7default
   663: ffff80000002e4b0   853 FUNC    LOCAL  DEFAULT    2 _RNvMs_NtCs19MhURV36j2_4emkk9processesNtB4_15ApplicationPool8allocate
   664: ffff80000002e080   891 FUNC    LOCAL  HIDDEN     2 _RNvMs0_NtCs19MhURV36j2_4emkk9processesNtB5_18ApplicationComplex18summon_application
   665: ffff80000002e400   127 FUNC    LOCAL  HIDDEN     2 _RNvMs0_NtCs19MhURV36j2_4emkk9processesNtB5_18ApplicationComplex8allocate
   666: ffff80000002e480    37 FUNC    LOCAL  HIDDEN     2 _RNvMs1_NtCs19MhURV36j2_4emkk9processesNtB5_11IpiVMemSync3new
   667: 0000000000000000     0 FILE    LOCAL  DEFAULT  ABS 69w1ejq9xpl54f91cycvt89fj
   668: ffff80000002e810  5889 FUNC    LOCAL  DEFAULT    2 _RNvMs_NtNtCs19MhURV36j2_4emkk7drivers8keyboardNtB4_8Keyboard10usb_report
   669: ffff8000000b0226     8 OBJECT  LOCAL  DEFAULT    6 _RNvNtNtCs19MhURV36j2_4emkk7drivers8keyboard9LAST_SCAN
   670: ffff8000000b0238    32 OBJECT  LOCAL  DEFAULT    6 _RNvNtNtCs19MhURV36j2_4emkk7drivers8keyboard12PRESSED_KEYS
   671: ffff8000000b025a     1 OBJECT  LOCAL  DEFAULT    6 _RNvNtNtCs19MhURV36j2_4emkk7drivers8keyboard9UPPERCASE
   672: ffff8000000b0258     1 OBJECT  LOCAL  DEFAULT    6 _RNvNtNtCs19MhURV36j2_4emkk7drivers8keyboard16NUM_KEYS_PRESSED
   673: ffff8000000b0259     1 OBJECT  LOCAL  DEFAULT    6 _RNvNtNtCs19MhURV36j2_4emkk7drivers8keyboard19NUM_TRANSLATED_KEYS
   674: ffff800000030530   335 FUNC    LOCAL  DEFAULT    2 _RNvNtNtCs19MhURV36j2_4emkk7drivers8keyboard17usb_translate_key
   675: ffff8000000b0120     6 OBJECT  LOCAL  DEFAULT    6 _RNvNtNtCs19MhURV36j2_4emkk7drivers8keyboard15TRANSLATED_KEYS
   676: ffff800000030450   218 FUNC    LOCAL  DEFAULT    2 _RNvNtNtCs19MhURV36j2_4emkk7drivers8keyboard15usb_unpress_key
   677: ffff80000002ff20   224 FUNC    LOCAL  DEFAULT    2 _RNvMs_NtNtCs19MhURV36j2_4emkk7drivers8keyboardNtB4_8Keyboard15choose_keyboard
   678: ffff8000000b0126   256 OBJECT  LOCAL  DEFAULT    6 _RNvNtNtCs19MhURV36j2_4emkk7drivers8keyboard23ASCII_TRANSLATION_TABLE
   679: ffff800000095dca     1 OBJECT  LOCAL  DEFAULT    3 _RNvNtNtCs19MhURV36j2_4emkk7drivers8keyboard36KEYBOARD_MAXIMUM_USB_KEY_IMPLEMENTED
   680: ffff800000095b4d   116 OBJECT  LOCAL  DEFAULT    3 _RNvNtNtCs19MhURV36j2_4emkk7drivers8keyboard28US_USB_KEY_TRANSLATION_TABLE
   681: ffff800000095cc0   116 OBJECT  LOCAL  DEFAULT    3 _RNvNtNtCs19MhURV36j2_4emkk7drivers8keyboard32US_USB_KEY_UPPERCASE_TRANSLATION
   682: ffff800000095bc1   255 OBJECT  LOCAL  DEFAULT    3 _RNvNtNtCs19MhURV36j2_4emkk7drivers8keyboard30US_USB_ASCII_TRANSLATION_TABLE
   683: ffff800000030000  1093 FUNC    LOCAL  HIDDEN     2 _RNvMs_NtNtCs19MhURV36j2_4emkk7drivers8keyboardNtB4_8Keyboard7new_usb
   684: ffff800000030680    34 FUNC    LOCAL  HIDDEN     2 _RNvXNtNtCs19MhURV36j2_4emkk7drivers8keyboardNtB2_8KeyboardNtNtCs3i3vE8eoeEl_4core7default7Default7default
   685: 0000000000000000     0 FILE    LOCAL  DEFAULT  ABS 6etcecaiaemiodze92u4a5ovr
   686: ffff8000000306e0   211 FUNC    LOCAL  DEFAULT    2 _RNvNtNtCs3i3vE8eoeEl_4core4char7methods15encode_utf8_rawCs19MhURV36j2_4emkk
   687: ffff800000030a30    98 FUNC    LOCAL  DEFAULT    2 _RNvNtNtCs3i3vE8eoeEl_4core4char7methods8len_utf8Cs19MhURV36j2_4emkk
   688: ffff8000000307c0   620 FUNC    LOCAL  DEFAULT    2 _RNvNtNtCs3i3vE8eoeEl_4core4char7methods25encode_utf8_raw_uncheckedCs19MhURV36j2_4emkk
   689: ffff800000030aa0   204 FUNC    LOCAL  DEFAULT    2 _RNvNvNvNtNtCs3i3vE8eoeEl_4core4char7methods15encode_utf8_raw8do_panic7runtimeCs19MhURV36j2_4emkk
   690: ffff8000000306b0    39 FUNC    LOCAL  HIDDEN     2 _RNvMNtNtCs3i3vE8eoeEl_4core4char7methodsc11encode_utf8Cs19MhURV36j2_4emkk
   691: 0000000000000000     0 FILE    LOCAL  DEFAULT  ABS 6fnjfquh2urbf25wkmkcmt85r
   692: ffff800000030d00    26 FUNC    LOCAL  DEFAULT    2 _RNvMNtNtCs3i3vE8eoeEl_4core3ptr7mut_ptrONtNtNtNtCs19MhURV36j2_4emkk7drivers4disk4nvme14NVMeController7is_nullBK_
   693: ffff800000030dc0    26 FUNC    LOCAL  DEFAULT    2 _RNvMNtNtCs3i3vE8eoeEl_4core3ptr9const_ptrPNtNtNtNtCs19MhURV36j2_4emkk7drivers4disk4nvme14NVMeController7is_nullBM_
   694: ffff800000030da0    26 FUNC    LOCAL  DEFAULT    2 _RNvMNtNtCs3i3vE8eoeEl_4core3ptr7mut_ptrONtNtNtNtCs19MhURV36j2_4emkk7drivers4disk4nvme8NVMeDisk7is_nullBK_
   695: ffff800000030de0    26 FUNC    LOCAL  DEFAULT    2 _RNvMNtNtCs3i3vE8eoeEl_4core3ptr9const_ptrPNtNtNtNtCs19MhURV36j2_4emkk7drivers4disk4nvme8NVMeDisk7is_nullBM_
   696: ffff800000030d20    52 FUNC    LOCAL  HIDDEN     2 _RNvMNtNtCs3i3vE8eoeEl_4core3ptr7mut_ptrONtNtNtNtCs19MhURV36j2_4emkk7drivers4disk4nvme8NVMeDisk6as_mutBK_
   697: ffff800000030cc0    52 FUNC    LOCAL  HIDDEN     2 _RNvMNtNtCs3i3vE8eoeEl_4core3ptr7mut_ptrONtNtNtNtCs19MhURV36j2_4emkk7drivers4disk4nvme14NVMeController6as_mutBK_
   698: ffff800000030d60    52 FUNC    LOCAL  HIDDEN     2 _RNvMNtNtCs3i3vE8eoeEl_4core3ptr7mut_ptrONtNtNtNtCs19MhURV36j2_4emkk7drivers4disk4nvme8NVMeDisk6as_refBK_
   699: ffff800000030b70   113 FUNC    LOCAL  HIDDEN     2 _RNCNCNvMs_NtNtNtCs19MhURV36j2_4emkk7drivers4disk4nvmeNtB8_14NVMeController9sync_vmem00Be_
   700: ffff800000030bf0   198 FUNC    LOCAL  HIDDEN     2 _RNCNvMs_NtNtNtCs19MhURV36j2_4emkk7drivers4disk4nvmeNtB6_14NVMeController9sync_vmem0Bc_
   701: 0000000000000000     0 FILE    LOCAL  DEFAULT  ABS 6nku9te4y95v4t1sc7rmbrpx9
   702: 0000000000000000     0 FILE    LOCAL  DEFAULT  ABS 6p5zdhon94zc1fnlsa32e01xk
   703: ffff800000030e60    61 FUNC    LOCAL  DEFAULT    2 _RNvNvMNtNtCs3i3vE8eoeEl_4core3ptr7mut_ptrOp3add18runtime_add_nowrapCs19MhURV36j2_4emkk
   704: ffff800000030f40   216 FUNC    LOCAL  DEFAULT    2 _RNvNvNvMNtNtCs3i3vE8eoeEl_4core3ptr7mut_ptrOp3add18runtime_add_nowrap7runtimeCs19MhURV36j2_4emkk
   705: ffff800000030f00    61 FUNC    LOCAL  DEFAULT    2 _RNvNvMNtNtCs3i3vE8eoeEl_4core3ptr7mut_ptrOp6offset21runtime_offset_nowrapCs19MhURV36j2_4emkk
   706: ffff800000031020   141 FUNC    LOCAL  DEFAULT    2 _RNvNvNvMNtNtCs3i3vE8eoeEl_4core3ptr7mut_ptrOp6offset21runtime_offset_nowrap7runtimeCs19MhURV36j2_4emkk
   707: ffff800000030e00    94 FUNC    LOCAL  HIDDEN     2 _RNvNvMNtNtCs3i3vE8eoeEl_4core3ptr7mut_ptrOp3add18precondition_checkCs19MhURV36j2_4emkk
   708: ffff800000030ea0    94 FUNC    LOCAL  HIDDEN     2 _RNvNvMNtNtCs3i3vE8eoeEl_4core3ptr7mut_ptrOp6offset18precondition_checkCs19MhURV36j2_4emkk
   709: 0000000000000000     0 FILE    LOCAL  DEFAULT  ABS 6p695hhnocrnllfkkz1b7pb8k
   710: ffff800000031b70  2845 FUNC    LOCAL  DEFAULT    2 _RNCNvNtNtCs19MhURV36j2_4emkk9processes2pe18load_pe_executable0B7_
   711: ffff8000000318b0   693 FUNC    LOCAL  DEFAULT    2 _RNCNvMs2_NtNtCs19MhURV36j2_4emkk9processes2peNtB7_6PeCoff13page_sections0Bb_
   712: ffff8000000326a0    12 FUNC    LOCAL  DEFAULT    2 _RNvYQNtNtNtCs19MhURV36j2_4emkk9processes2pe27PeImportLookupTableIteratorNtNtNtNtCs3i3vE8eoeEl_4core4iter6traits8iterator8Iterator9enumerateB9_
   713: ffff800000032690    15 FUNC    LOCAL  HIDDEN     2 _RNvXs0_NtNtNtCs3i3vE8eoeEl_4core4iter6traits8iteratorQNtNtNtCs19MhURV36j2_4emkk9processes2pe27PeImportLookupTableIteratorNtB5_8Iterator4nextBW_
   714: ffff8000000310b0  1451 FUNC    LOCAL  HIDDEN     2 _RINvMs2_NtNtCs19MhURV36j2_4emkk9processes2peNtB6_6PeCoff13iterate_idataNCNvB6_18load_pe_executable0EBa_
   715: ffff800000031660   586 FUNC    LOCAL  HIDDEN     2 _RINvMs2_NtNtCs19MhURV36j2_4emkk9processes2peNtB6_6PeCoff33iterate_image_sections_for_pagingNCNvB2_13page_sections0EBa_
   716: 0000000000000000     0 FILE    LOCAL  DEFAULT  ABS 6qnt0uc1ymrz8mztx6h5y0peh
   717: ffff800000032790   101 FUNC    LOCAL  DEFAULT    2 _RNCNvMs_NtNtCs19MhURV36j2_4emkk9processes10mark_tableNtB6_9MarkTable8increase0Ba_
   718: ffff8000000326b0   222 FUNC    LOCAL  HIDDEN     2 _RINvMNtNtCs19MhURV36j2_4emkk9processes10mark_tableNtB3_15MarkTableBucket11foreach_mutNCNvMs_B3_NtB3_9MarkTable8increase0EB7_
   719: 0000000000000000     0 FILE    LOCAL  DEFAULT  ABS 6s344vhc1kghm2kilgbjmlpit
   720: ffff800000032800    14 FUNC    LOCAL  HIDDEN     2 _RNvMs3_NtNtCs19MhURV36j2_4emkk5utils10allocatorsNtB5_4Node10is_freeing
   721: ffff800000032810    12 FUNC    LOCAL  HIDDEN     2 _RNvMs3_NtNtCs19MhURV36j2_4emkk5utils10allocatorsNtB5_4Node12is_reserving
   722: ffff800000032820    72 FUNC    LOCAL  HIDDEN     2 _RNvMs3_NtNtCs19MhURV36j2_4emkk5utils10allocatorsNtB5_4Node3new
   723: ffff800000032870    11 FUNC    LOCAL  HIDDEN     2 _RNvMs3_NtNtCs19MhURV36j2_4emkk5utils10allocatorsNtB5_4Node8get_baseB9_
   724: 0000000000000000     0 FILE    LOCAL  DEFAULT  ABS 6t1crjtekj1tqqzfmdaol7qpz
   725: ffff800000032880   169 FUNC    LOCAL  DEFAULT    2 _RNvNtNtCs19MhURV36j2_4emkk3hal10exceptions11__rce_common
   726: 0000000000000000     0 FILE    LOCAL  DEFAULT  ABS 6y5bo3ib87x3t5noyd66guoqg
   727: ffff8000000329b0    26 FUNC    LOCAL  DEFAULT    2 _RNvMNtNtCs3i3vE8eoeEl_4core3ptr7mut_ptrONtNtNtNtCs19MhURV36j2_4emkk3hal6memory5pager5Pager7is_nullBK_
   728: ffff8000000329d0    26 FUNC    LOCAL  DEFAULT    2 _RNvMNtNtCs3i3vE8eoeEl_4core3ptr9const_ptrPNtNtNtNtCs19MhURV36j2_4emkk3hal6memory5pager5Pager7is_nullBM_
   729: ffff800000032970    52 FUNC    LOCAL  HIDDEN     2 _RNvMNtNtCs3i3vE8eoeEl_4core3ptr7mut_ptrONtNtNtNtCs19MhURV36j2_4emkk3hal6memory5pager5Pager6as_mutBK_
   730: ffff800000032930    16 FUNC    LOCAL  HIDDEN     2 _RINvNtNtNtCs19MhURV36j2_4emkk3hal6memory5pager10page_alignNtNtB6_7pci_bus30EnhancedConfigurationMechanismEB8_
   731: ffff800000032940    16 FUNC    LOCAL  HIDDEN     2 _RINvNtNtNtCs19MhURV36j2_4emkk3hal6memory5pager10page_alignNtNtB8_11acpi_tables16descriptor_tableEB8_
   732: ffff800000032950    16 FUNC    LOCAL  HIDDEN     2 _RINvNtNtNtCs19MhURV36j2_4emkk3hal6memory5pager10page_alignNtNtB8_11acpi_tables4RsdpEB8_
   733: ffff800000032960    16 FUNC    LOCAL  HIDDEN     2 _RINvNtNtNtCs19MhURV36j2_4emkk3hal6memory5pager10page_alignNtNtB8_11acpi_tables4RsdtEB8_
   734: 0000000000000000     0 FILE    LOCAL  DEFAULT  ABS 70f0g77mqhs4b8fvlftwwqi7v
   735: ffff8000000329f0    87 FUNC    LOCAL  HIDDEN     2 _RNvNvNtCs3i3vE8eoeEl_4core3ptr13read_volatile18precondition_checkCs19MhURV36j2_4emkk
   736: ffff800000032ab0   254 FUNC    LOCAL  HIDDEN     2 _RNvNvNtCs3i3vE8eoeEl_4core3ptr19copy_nonoverlapping18precondition_checkCs19MhURV36j2_4emkk
   737: ffff800000032a50    87 FUNC    LOCAL  HIDDEN     2 _RNvNvNtCs3i3vE8eoeEl_4core3ptr14write_volatile18precondition_checkCs19MhURV36j2_4emkk
   738: ffff800000032bb0   106 FUNC    LOCAL  HIDDEN     2 _RNvNvNtCs3i3vE8eoeEl_4core3ptr4read18precondition_checkCs19MhURV36j2_4emkk
   739: ffff800000032c20   106 FUNC    LOCAL  HIDDEN     2 _RNvNvNtCs3i3vE8eoeEl_4core3ptr5write18precondition_checkCs19MhURV36j2_4emkk
   740: 0000000000000000     0 FILE    LOCAL  DEFAULT  ABS 71mcxwlorpejdzu25gepgrpwv
   741: ffff800000032c90  1625 FUNC    LOCAL  DEFAULT    2 _RNvMNtNtNtCs19MhURV36j2_4emkk3vfs3gfs4fileNtB2_7GfsFile12read_virtual
   742: ffff8000000a3360     4 OBJECT  LOCAL  DEFAULT    4 _RNvNtNtNtCs19MhURV36j2_4emkk3vfs3gfs4file30CURRENT_UNIQUE_FILE_IDENTIFIER
   743: ffff8000000332f0    11 FUNC    LOCAL  HIDDEN     2 _RNvMNtNtNtCs19MhURV36j2_4emkk3vfs3gfs4fileNtB2_7GfsFile15get_permissions
   744: ffff800000033590  1364 FUNC    LOCAL  HIDDEN     2 _RNvMNtNtNtCs19MhURV36j2_4emkk3vfs3gfs4fileNtB2_7GfsFile4read
   745: ffff800000033300    19 FUNC    LOCAL  HIDDEN     2 _RNvMNtNtNtCs19MhURV36j2_4emkk3vfs3gfs4fileNtB2_7GfsFile17set_system_access
   746: ffff800000033320   143 FUNC    LOCAL  HIDDEN     2 _RNvMNtNtNtCs19MhURV36j2_4emkk3vfs3gfs4fileNtB2_7GfsFile18virtualize_virtual
   747: ffff8000000333b0    89 FUNC    LOCAL  HIDDEN     2 _RNvMNtNtNtCs19MhURV36j2_4emkk3vfs3gfs4fileNtB2_7GfsFile23remove_write_permission
   748: ffff800000033410   383 FUNC    LOCAL  HIDDEN     2 _RNvMNtNtNtCs19MhURV36j2_4emkk3vfs3gfs4fileNtB2_7GfsFile3new
   749: 0000000000000000     0 FILE    LOCAL  DEFAULT  ABS 75e062f3mh5bogotrzf65rwi0
   750: ffff8000000b3000  1792 OBJECT  LOCAL  HIDDEN     9 _RNvNtNtCs19MhURV36j2_4emkk4arch3isr19HOST_CORE_ISR_CALLS
   751: ffff800000033af0   386 FUNC    LOCAL  HIDDEN     2 _RNvNtNtCs19MhURV36j2_4emkk4arch3isr11invalid_isr
   752: 0000000000000000     0 FILE    LOCAL  DEFAULT  ABS 76lfcqetspvodz8vzvis1yi5w
   753: ffff800000033c80   228 FUNC    LOCAL  HIDDEN     2 _RNCNvNtNtCs19MhURV36j2_4emkk3pfs12disk_scanner10scan_disks0B7_
   754: 0000000000000000     0 FILE    LOCAL  DEFAULT  ABS 7aroa4f4bko68jmr2n8skbu26
   755: 0000000000000000     0 FILE    LOCAL  DEFAULT  ABS 7bg3ee3eno054quxs15d7bjwc
   756: ffff8000000342d0   159 FUNC    LOCAL  DEFAULT    2 _RNvMNtNtNtCs19MhURV36j2_4emkk3vfs3gfs17directory_hashmapNtB2_22DirectoryHashmapBucket13free_contents
   757: ffff800000034370   395 FUNC    LOCAL  DEFAULT    2 _RNvMNtNtNtCs19MhURV36j2_4emkk3vfs3gfs17directory_hashmapNtB2_22DirectoryHashmapBucket4grow
   758: ffff800000034500   179 FUNC    LOCAL  DEFAULT    2 _RNvMNtNtNtCs19MhURV36j2_4emkk3vfs3gfs17directory_hashmapNtB2_22DirectoryHashmapBucket6assign
   759: ffff8000000345c0   243 FUNC    LOCAL  DEFAULT    2 _RNvMNtNtNtCs19MhURV36j2_4emkk3vfs3gfs17directory_hashmapNtB2_22DirectoryHashmapBucket8contains
   760: ffff8000000346c0  1567 FUNC    LOCAL  DEFAULT    2 _RNvMs0_NtNtNtCs19MhURV36j2_4emkk3vfs3gfs17directory_hashmapNtB5_19GfsDirectoryHashmap11rehash_core
   761: ffff800000034ce0   907 FUNC    LOCAL  DEFAULT    2 _RNvMs0_NtNtNtCs19MhURV36j2_4emkk3vfs3gfs17directory_hashmapNtB5_19GfsDirectoryHashmap13rehash_bucket
   762: ffff800000035960   412 FUNC    LOCAL  DEFAULT    2 _RNvMs0_NtNtNtCs19MhURV36j2_4emkk3vfs3gfs17directory_hashmapNtB5_19GfsDirectoryHashmap8hash_str
   763: ffff800000035770   491 FUNC    LOCAL  DEFAULT    2 _RNvMs0_NtNtNtCs19MhURV36j2_4emkk3vfs3gfs17directory_hashmapNtB5_19GfsDirectoryHashmap6rehash
   764: ffff8000000355b0   441 FUNC    LOCAL  HIDDEN     2 _RNvMs0_NtNtNtCs19MhURV36j2_4emkk3vfs3gfs17directory_hashmapNtB5_19GfsDirectoryHashmap6lookup
   765: ffff800000035070  1332 FUNC    LOCAL  HIDDEN     2 _RNvMs0_NtNtNtCs19MhURV36j2_4emkk3vfs3gfs17directory_hashmapNtB5_19GfsDirectoryHashmap6insert
   766: ffff800000035b00  2025 FUNC    LOCAL  HIDDEN     2 _RNvMs_NtNtNtCs19MhURV36j2_4emkk3vfs3gfs17directory_hashmapNtB4_26GfsDirectoryHashmapManager16allocate_hashmap
   767: ffff8000000362f0   467 FUNC    LOCAL  HIDDEN     2 _RNvMs_NtNtNtCs19MhURV36j2_4emkk3vfs3gfs17directory_hashmapNtB4_26GfsDirectoryHashmapManager3new
   768: 0000000000000000     0 FILE    LOCAL  DEFAULT  ABS 7dx7nlq1gb2ren999lc3863tz
   769: ffff8000000364f0    63 FUNC    LOCAL  DEFAULT    2 _RNvNvNtCs3i3vE8eoeEl_4core4hint21unreachable_unchecked18precondition_checkCs19MhURV36j2_4emkk
   770: ffff8000000364d0    27 FUNC    LOCAL  HIDDEN     2 _RNvNtCs3i3vE8eoeEl_4core4hint21unreachable_uncheckedCs19MhURV36j2_4emkk
   771: 0000000000000000     0 FILE    LOCAL  DEFAULT  ABS 7oqqve00jesh6vvqqr1e9xfn4
   772: ffff8000000368c0   360 FUNC    LOCAL  HIDDEN     2 _RNvMNtNtCs19MhURV36j2_4emkk5utils6bufferNtB2_6Buffer3new
   773: ffff800000036a80    10 FUNC    LOCAL  HIDDEN     2 _RNvMNtNtCs19MhURV36j2_4emkk5utils6bufferNtB2_6Buffer7address
   774: ffff800000036a90   181 FUNC    LOCAL  HIDDEN     2 _RNvMNtNtCs19MhURV36j2_4emkk5utils6bufferNtB2_6Buffer7release
   775: ffff800000036620    12 FUNC    LOCAL  HIDDEN     2 _RNvMNtNtCs19MhURV36j2_4emkk5utils6bufferNtB2_6Buffer11is_readonly
   776: ffff800000036b80    11 FUNC    LOCAL  HIDDEN     2 _RNvMNtNtCs19MhURV36j2_4emkk5utils6bufferNtB2_6Buffer8get_size
   777: ffff800000036b50    10 FUNC    LOCAL  HIDDEN     2 _RNvMNtNtCs19MhURV36j2_4emkk5utils6bufferNtB2_6Buffer8as_const
   778: ffff800000036a30    71 FUNC    LOCAL  HIDDEN     2 _RNvMNtNtCs19MhURV36j2_4emkk5utils6bufferNtB2_6Buffer5empty
   779: ffff800000036690   553 FUNC    LOCAL  HIDDEN     2 _RNvMNtNtCs19MhURV36j2_4emkk5utils6bufferNtB2_6Buffer20new_physical_virtual
   780: ffff800000036630    85 FUNC    LOCAL  HIDDEN     2 _RNvMNtNtCs19MhURV36j2_4emkk5utils6bufferNtB2_6Buffer13from_existing
   781: ffff800000036530   230 FUNC    LOCAL  HIDDEN     2 _RNvMNtNtCs19MhURV36j2_4emkk5utils6bufferNtB2_6Buffer10sub_buffer
   782: ffff800000036b60    29 FUNC    LOCAL  HIDDEN     2 _RNvMNtNtCs19MhURV36j2_4emkk5utils6bufferNtB2_6Buffer8as_slice
   783: 0000000000000000     0 FILE    LOCAL  DEFAULT  ABS 7t2prjdwhehrtoyxwid676qnp
   784: ffff800000038740    52 FUNC    LOCAL  DEFAULT    2 _RNvMNtNtCs3i3vE8eoeEl_4core3ptr7mut_ptrONtNtCs19MhURV36j2_4emkk14multithreading23MultithreadingLocalApic6as_mutBG_
   785: ffff800000038800    52 FUNC    LOCAL  DEFAULT    2 _RNvMNtNtCs3i3vE8eoeEl_4core3ptr9const_ptrPNtNtCs19MhURV36j2_4emkk14multithreading23MultithreadingLocalApic6as_refBI_
   786: ffff800000038780    26 FUNC    LOCAL  DEFAULT    2 _RNvMNtNtCs3i3vE8eoeEl_4core3ptr7mut_ptrONtNtCs19MhURV36j2_4emkk14multithreading23MultithreadingLocalApic7is_nullBG_
   787: ffff800000038840    26 FUNC    LOCAL  DEFAULT    2 _RNvMNtNtCs3i3vE8eoeEl_4core3ptr9const_ptrPNtNtCs19MhURV36j2_4emkk14multithreading23MultithreadingLocalApic7is_nullBI_
   788: ffff8000000387e0    26 FUNC    LOCAL  DEFAULT    2 _RNvMNtNtCs3i3vE8eoeEl_4core3ptr7mut_ptrONtNtCs19MhURV36j2_4emkk14multithreading6IoApic7is_nullBG_
   789: ffff8000000388a0    26 FUNC    LOCAL  DEFAULT    2 _RNvMNtNtCs3i3vE8eoeEl_4core3ptr9const_ptrPNtNtCs19MhURV36j2_4emkk14multithreading6IoApic7is_nullBI_
   790: ffff800000037780  2931 FUNC    LOCAL  HIDDEN     2 _RNCNvMs3_NtCs19MhURV36j2_4emkk14multithreadingNtB7_14Multithreading14activate_cores0B9_
   791: ffff800000038300  1086 FUNC    LOCAL  HIDDEN     2 _RNCNvMs3_NtCs19MhURV36j2_4emkk14multithreadingNtB7_14Multithreading3new0B9_
   792: ffff8000000387a0    52 FUNC    LOCAL  HIDDEN     2 _RNvMNtNtCs3i3vE8eoeEl_4core3ptr7mut_ptrONtNtCs19MhURV36j2_4emkk14multithreading6IoApic6as_refBG_
   793: ffff800000036e90   253 FUNC    LOCAL  HIDDEN     2 _RINvMs3_NtCs19MhURV36j2_4emkk14multithreadingNtB6_14Multithreading13foreach_lapicNCNvMs_NtNtNtB8_7drivers4disk4nvmeNtB1o_14NVMeController9sync_vmem0EB8_
   794: ffff8000000374f0   323 FUNC    LOCAL  HIDDEN     2 _RINvMs3_NtCs19MhURV36j2_4emkk14multithreadingNtB6_14Multithreading13send_user_ipiNCNCNvMs_NtNtNtB8_7drivers4disk4nvmeNtB1q_14NVMeController9sync_vmem00EB8_
   795: ffff800000036b90   253 FUNC    LOCAL  HIDDEN     2 _RINvMs3_NtCs19MhURV36j2_4emkk14multithreadingNtB6_14Multithreading13foreach_lapicNCNvMNtB8_3halNtB1m_11SystemTable23initialize_disk_drivers0EB8_
   796: ffff800000036c90   251 FUNC    LOCAL  HIDDEN     2 _RINvMs3_NtCs19MhURV36j2_4emkk14multithreadingNtB6_14Multithreading13foreach_lapicNCNvMNtB8_3halNtB1m_11SystemTable28initialize_executable_loader0EB8_
   797: ffff800000036d90   251 FUNC    LOCAL  HIDDEN     2 _RINvMs3_NtCs19MhURV36j2_4emkk14multithreadingNtB6_14Multithreading13foreach_lapicNCNvMs_NtNtB8_3vfs3gfsNtB1o_17GeneralFileSystem13send_sync_ipi0EB8_
   798: ffff800000036f90   323 FUNC    LOCAL  HIDDEN     2 _RINvMs3_NtCs19MhURV36j2_4emkk14multithreadingNtB6_14Multithreading13send_user_ipiNCNCNvMNtB8_3halNtB1o_11SystemTable28initialize_executable_loader00EB8_
   799: ffff8000000370e0   323 FUNC    LOCAL  HIDDEN     2 _RINvMs3_NtCs19MhURV36j2_4emkk14multithreadingNtB6_14Multithreading13send_user_ipiNCNCNvMNtB8_3halNtB1o_11SystemTable28initialize_executable_loader0s0_0EB8_
   800: ffff800000037230   323 FUNC    LOCAL  HIDDEN     2 _RINvMs3_NtCs19MhURV36j2_4emkk14multithreadingNtB6_14Multithreading13send_user_ipiNCNCNvMNtB8_3halNtB1o_11SystemTable28initialize_executable_loader0s_0EB8_
   801: ffff800000037380   362 FUNC    LOCAL  HIDDEN     2 _RINvMs3_NtCs19MhURV36j2_4emkk14multithreadingNtB6_14Multithreading13send_user_ipiNCNCNvMs_NtNtB8_3vfs3gfsNtB1q_17GeneralFileSystem13send_sync_ipi00EB8_
   802: ffff800000037640   309 FUNC    LOCAL  HIDDEN     2 _RINvMs3_NtCs19MhURV36j2_4emkk14multithreadingNtB6_14Multithreading13send_user_ipiNCNvMNtB8_3halNtB1m_11SystemTable4test0EB8_
   803: ffff800000038860    52 FUNC    LOCAL  HIDDEN     2 _RNvMNtNtCs3i3vE8eoeEl_4core3ptr9const_ptrPNtNtCs19MhURV36j2_4emkk14multithreading6IoApic6as_refBI_
   804: 0000000000000000     0 FILE    LOCAL  DEFAULT  ABS 7v37pvc1ejo53magzl3y1g168
   805: ffff8000000389a0   219 FUNC    LOCAL  DEFAULT    2 _RINvNtCs3i3vE8eoeEl_4core5slice20copy_from_slice_implTmmEECs19MhURV36j2_4emkk
   806: ffff8000000388c0   219 FUNC    LOCAL  HIDDEN     2 _RINvNtCs3i3vE8eoeEl_4core5slice20copy_from_slice_implNtNtNtNtCs19MhURV36j2_4emkk3vfs3gfs17directory_hashmap21DirectoryHashmapEntryEBX_
   807: ffff800000038a80    24 FUNC    LOCAL  HIDDEN     2 _RNvMNtCs3i3vE8eoeEl_4core5sliceSThyE4iterCs19MhURV36j2_4emkk
   808: ffff800000038aa0    34 FUNC    LOCAL  HIDDEN     2 _RNvMNtCs3i3vE8eoeEl_4core5sliceSTmmE15copy_from_sliceCs19MhURV36j2_4emkk
   809: 0000000000000000     0 FILE    LOCAL  DEFAULT  ABS 7wrpv4eilhynxbi6qhyriml8u
   810: ffff800000038ef0    88 FUNC    LOCAL  HIDDEN     2 _RINvNtNtCs3i3vE8eoeEl_4core5slice3raw18from_raw_parts_mutNtNtNtCs19MhURV36j2_4emkk4arch10interrupts8IdtEntryEBZ_
   811: ffff8000000393d0    86 FUNC    LOCAL  HIDDEN     2 _RINvNtNtCs3i3vE8eoeEl_4core5slice3raw18from_raw_parts_mutyECs19MhURV36j2_4emkk
   812: ffff800000038c50    86 FUNC    LOCAL  HIDDEN     2 _RINvNtNtCs3i3vE8eoeEl_4core5slice3raw14from_raw_partsmECs19MhURV36j2_4emkk
   813: ffff800000038ad0    88 FUNC    LOCAL  HIDDEN     2 _RINvNtNtCs3i3vE8eoeEl_4core5slice3raw14from_raw_partsNtNtNtCs19MhURV36j2_4emkk3pfs3gpt17GptPartitionEntryEBV_
   814: ffff800000038e30    88 FUNC    LOCAL  HIDDEN     2 _RINvNtNtCs3i3vE8eoeEl_4core5slice3raw18from_raw_parts_mutNtNtNtCs19MhURV36j2_4emkk3pfs5linux6Ext2FsEBZ_
   815: ffff800000038d70    88 FUNC    LOCAL  HIDDEN     2 _RINvNtNtCs3i3vE8eoeEl_4core5slice3raw18from_raw_parts_mutNtNtCs19MhURV36j2_4emkk9processes11ApplicationEBX_
   816: ffff800000039070    88 FUNC    LOCAL  HIDDEN     2 _RINvNtNtCs3i3vE8eoeEl_4core5slice3raw18from_raw_parts_mutNtNtNtNtCs19MhURV36j2_4emkk3vfs3gfs17directory_hashmap21DirectoryHashmapEntryEB11_
   817: ffff8000000390d0    88 FUNC    LOCAL  HIDDEN     2 _RINvNtNtCs3i3vE8eoeEl_4core5slice3raw18from_raw_parts_mutNtNtNtNtCs19MhURV36j2_4emkk3vfs3gfs17directory_hashmap22DirectoryHashmapBucketEB11_
   818: ffff800000038b30    88 FUNC    LOCAL  HIDDEN     2 _RINvNtNtCs3i3vE8eoeEl_4core5slice3raw14from_raw_partsNtNtNtNtCs19MhURV36j2_4emkk3hal6memory9allocator11MemoryBlockEBX_
   819: ffff800000038b90    88 FUNC    LOCAL  HIDDEN     2 _RINvNtNtCs3i3vE8eoeEl_4core5slice3raw14from_raw_partsNtNtNtNtCs19MhURV36j2_4emkk9processes2pe10structures18ImageDataDirectoryEBX_
   820: ffff800000038bf0    88 FUNC    LOCAL  HIDDEN     2 _RINvNtNtCs3i3vE8eoeEl_4core5slice3raw14from_raw_partsNtNtNtNtCs19MhURV36j2_4emkk9processes2pe10structures18ImageSectionHeaderEBX_
   821: ffff800000038cb0    86 FUNC    LOCAL  HIDDEN     2 _RINvNtNtCs3i3vE8eoeEl_4core5slice3raw14from_raw_partstECs19MhURV36j2_4emkk
   822: ffff800000038d10    88 FUNC    LOCAL  HIDDEN     2 _RINvNtNtCs3i3vE8eoeEl_4core5slice3raw18from_raw_parts_mutINtNtB6_6option6OptionNtNtNtCs19MhURV36j2_4emkk3vfs3gfs11GfsNtfsRootEEB1l_
   823: ffff800000038dd0    88 FUNC    LOCAL  HIDDEN     2 _RINvNtNtCs3i3vE8eoeEl_4core5slice3raw18from_raw_parts_mutNtNtNtCs19MhURV36j2_4emkk3pfs5linux22PhysicalExt2BlockGroupEBZ_
   824: ffff800000038e90    88 FUNC    LOCAL  HIDDEN     2 _RINvNtNtCs3i3vE8eoeEl_4core5slice3raw18from_raw_parts_mutNtNtNtCs19MhURV36j2_4emkk3vfs3gfs5GfsFsEBZ_
   825: ffff800000038f50    88 FUNC    LOCAL  HIDDEN     2 _RINvNtNtCs3i3vE8eoeEl_4core5slice3raw18from_raw_parts_mutNtNtNtCs19MhURV36j2_4emkk5utils10allocators4NodeEBZ_
   826: ffff800000038fb0    88 FUNC    LOCAL  HIDDEN     2 _RINvNtNtCs3i3vE8eoeEl_4core5slice3raw18from_raw_parts_mutNtNtNtCs19MhURV36j2_4emkk9processes10mark_table15MarkTableBucketEBZ_
   827: ffff800000039010    88 FUNC    LOCAL  HIDDEN     2 _RINvNtNtCs3i3vE8eoeEl_4core5slice3raw18from_raw_parts_mutNtNtNtNtCs19MhURV36j2_4emkk3vfs3gfs17directory_hashmap19GfsDirectoryHashmapEB11_
   828: ffff800000039130    88 FUNC    LOCAL  HIDDEN     2 _RINvNtNtCs3i3vE8eoeEl_4core5slice3raw18from_raw_parts_mutNtNtNtNtCs19MhURV36j2_4emkk3vfs3gfs4file7GfsFileEB11_
   829: ffff800000039190    88 FUNC    LOCAL  HIDDEN     2 _RINvNtNtCs3i3vE8eoeEl_4core5slice3raw18from_raw_parts_mutNtNtNtNtCs19MhURV36j2_4emkk3vfs3gfs9directory12GfsDirectoryEB11_
   830: ffff8000000391f0    88 FUNC    LOCAL  HIDDEN     2 _RINvNtNtCs3i3vE8eoeEl_4core5slice3raw18from_raw_parts_mutNtNtNtNtCs19MhURV36j2_4emkk7drivers4disk15nvme_structures19NVMeCompletionEntryEB11_
   831: ffff800000039250    88 FUNC    LOCAL  HIDDEN     2 _RINvNtNtCs3i3vE8eoeEl_4core5slice3raw18from_raw_parts_mutNtNtNtNtCs19MhURV36j2_4emkk7drivers4disk15nvme_structures19NVMeSubmissionEntryEB11_
   832: ffff8000000392b0    88 FUNC    LOCAL  HIDDEN     2 _RINvNtNtCs3i3vE8eoeEl_4core5slice3raw18from_raw_parts_mutTReRNtNtNtNtCs19MhURV36j2_4emkk3vfs3gfs4file7GfsFileEEB15_
   833: ffff800000039310    88 FUNC    LOCAL  HIDDEN     2 _RINvNtNtCs3i3vE8eoeEl_4core5slice3raw18from_raw_parts_mutThyEECs19MhURV36j2_4emkk
   834: ffff800000039370    88 FUNC    LOCAL  HIDDEN     2 _RINvNtNtCs3i3vE8eoeEl_4core5slice3raw18from_raw_parts_mutTmmEECs19MhURV36j2_4emkk
   835: 0000000000000000     0 FILE    LOCAL  DEFAULT  ABS 7ytmi0r1c41d5kaw9eayo067y
   836: ffff800000039470    26 FUNC    LOCAL  DEFAULT    2 _RNvMNtNtCs3i3vE8eoeEl_4core3ptr7mut_ptrONtNtNtNtCs19MhURV36j2_4emkk7drivers3usb4ehci19EhciInterruptPoller7is_nullBK_
   837: ffff8000000394f0    26 FUNC    LOCAL  DEFAULT    2 _RNvMNtNtCs3i3vE8eoeEl_4core3ptr9const_ptrPNtNtNtNtCs19MhURV36j2_4emkk7drivers3usb4ehci19EhciInterruptPoller7is_nullBM_
   838: ffff8000000394d0    26 FUNC    LOCAL  DEFAULT    2 _RNvMNtNtCs3i3vE8eoeEl_4core3ptr7mut_ptrONtNtNtNtCs19MhURV36j2_4emkk7drivers3usb4ehci4Ehci7is_nullBK_
   839: ffff800000039550    26 FUNC    LOCAL  DEFAULT    2 _RNvMNtNtCs3i3vE8eoeEl_4core3ptr9const_ptrPNtNtNtNtCs19MhURV36j2_4emkk7drivers3usb4ehci4Ehci7is_nullBM_
   840: ffff800000039490    52 FUNC    LOCAL  HIDDEN     2 _RNvMNtNtCs3i3vE8eoeEl_4core3ptr7mut_ptrONtNtNtNtCs19MhURV36j2_4emkk7drivers3usb4ehci4Ehci6as_mutBK_
   841: ffff800000039510    52 FUNC    LOCAL  HIDDEN     2 _RNvMNtNtCs3i3vE8eoeEl_4core3ptr9const_ptrPNtNtNtNtCs19MhURV36j2_4emkk7drivers3usb4ehci4Ehci6as_refBM_
   842: ffff800000039430    52 FUNC    LOCAL  HIDDEN     2 _RNvMNtNtCs3i3vE8eoeEl_4core3ptr7mut_ptrONtNtNtNtCs19MhURV36j2_4emkk7drivers3usb4ehci19EhciInterruptPoller6as_mutBK_
   843: 0000000000000000     0 FILE    LOCAL  DEFAULT  ABS 82qgwjnnf1e7337w0ivpx5qse
   844: ffff800000039d40   827 FUNC    LOCAL  HIDDEN     2 _RNvMs_NtNtCs19MhURV36j2_4emkk5utils6stringNtB4_6String7compare
   845: ffff8000000396c0   600 FUNC    LOCAL  HIDDEN     2 _RNvMs_NtNtCs19MhURV36j2_4emkk5utils6stringNtB4_6String14compare_extern
   846: ffff800000039920   322 FUNC    LOCAL  HIDDEN     2 _RNvMs_NtNtCs19MhURV36j2_4emkk5utils6stringNtB4_6String3new
   847: ffff800000039590   299 FUNC    LOCAL  HIDDEN     2 _RNvMs_NtNtCs19MhURV36j2_4emkk5utils6stringNtB4_6String13push_back_raw
   848: ffff80000003a080   405 FUNC    LOCAL  HIDDEN     2 _RNvMs_NtNtCs19MhURV36j2_4emkk5utils6stringNtB4_6String9push_back
   849: ffff800000039570    11 FUNC    LOCAL  HIDDEN     2 _RNvMs_NtNtCs19MhURV36j2_4emkk5utils6stringNtB4_6String10get_length
   850: ffff800000039a70   719 FUNC    LOCAL  HIDDEN     2 _RNvMs_NtNtCs19MhURV36j2_4emkk5utils6stringNtB4_6String4copy
   851: ffff800000039580    11 FUNC    LOCAL  HIDDEN     2 _RNvMs_NtNtCs19MhURV36j2_4emkk5utils6stringNtB4_6String11get_current
   852: ffff80000003a220    96 FUNC    LOCAL  HIDDEN     2 _RNvXNtNtCs19MhURV36j2_4emkk5utils6stringNtB2_6StringNtNtCs3i3vE8eoeEl_4core7default7Default7default
   853: 0000000000000000     0 FILE    LOCAL  DEFAULT  ABS 82y4i5munlmtvw09vzn0b7pye
   854: ffff80000003a280    12 FUNC    LOCAL  DEFAULT    2 _RNvMs0_NtCs3i3vE8eoeEl_4core3numl12unsigned_absCs19MhURV36j2_4emkk
   855: ffff80000003a290    65 FUNC    LOCAL  DEFAULT    2 _RNvMs0_NtCs3i3vE8eoeEl_4core3numl12wrapping_absCs19MhURV36j2_4emkk
   856: ffff80000003a350    60 FUNC    LOCAL  DEFAULT    2 _RNvMs0_NtCs3i3vE8eoeEl_4core3numl24overflowing_add_unsignedCs19MhURV36j2_4emkk
   857: ffff80000003a420   144 FUNC    LOCAL  HIDDEN     2 _RNvMs9_NtCs3i3vE8eoeEl_4core3numj11checked_mulCs19MhURV36j2_4emkk
   858: ffff80000003a550   202 FUNC    LOCAL  HIDDEN     2 _RNvMs9_NtCs3i3vE8eoeEl_4core3numj8abs_diffCs19MhURV36j2_4emkk
   859: ffff80000003a6a0   112 FUNC    LOCAL  HIDDEN     2 _RNvNvMs6_NtCs3i3vE8eoeEl_4core3numm13unchecked_add18precondition_checkCs19MhURV36j2_4emkk
   860: ffff80000003a2e0   104 FUNC    LOCAL  HIDDEN     2 _RNvMs0_NtCs3i3vE8eoeEl_4core3numl20checked_add_unsignedCs19MhURV36j2_4emkk
   861: ffff80000003a710   120 FUNC    LOCAL  HIDDEN     2 _RNvNvMs7_NtCs3i3vE8eoeEl_4core3numy13unchecked_add18precondition_checkCs19MhURV36j2_4emkk
   862: ffff80000003a620   114 FUNC    LOCAL  HIDDEN     2 _RNvNvMs4_NtCs3i3vE8eoeEl_4core3numh13unchecked_add18precondition_checkCs19MhURV36j2_4emkk
   863: ffff80000003a390   139 FUNC    LOCAL  HIDDEN     2 _RNvMs3_NtCs3i3vE8eoeEl_4core3numi11checked_mulCs19MhURV36j2_4emkk
   864: ffff80000003a500    71 FUNC    LOCAL  HIDDEN     2 _RNvMs9_NtCs3i3vE8eoeEl_4core3numj22overflowing_add_signedCs19MhURV36j2_4emkk
   865: ffff80000003a4b0    80 FUNC    LOCAL  HIDDEN     2 _RNvMs9_NtCs3i3vE8eoeEl_4core3numj11checked_subCs19MhURV36j2_4emkk
   866: 0000000000000000     0 FILE    LOCAL  DEFAULT  ABS 83yca4ywnbiz4hoprztmwof20
   867: ffff80000003a7f0    26 FUNC    LOCAL  DEFAULT    2 _RNvMNtNtCs3i3vE8eoeEl_4core3ptr9const_ptrPNtNtNtCs19MhURV36j2_4emkk3pfs3gpt9GptHeader7is_nullBK_
   868: ffff80000003a7b0    52 FUNC    LOCAL  HIDDEN     2 _RNvMNtNtCs3i3vE8eoeEl_4core3ptr9const_ptrPNtNtNtCs19MhURV36j2_4emkk3pfs3gpt9GptHeader6as_refBK_
   869: ffff80000003a790    24 FUNC    LOCAL  HIDDEN     2 _RNvMNtCs3i3vE8eoeEl_4core5sliceSNtNtNtCs19MhURV36j2_4emkk3pfs3gpt17GptPartitionEntry4iterBA_
   870: 0000000000000000     0 FILE    LOCAL  DEFAULT  ABS 89foy20raxxtiizk2rxj5s2f6
   871: ffff80000003a870    81 FUNC    LOCAL  DEFAULT    2 _RNvMs8_NtNtCs3i3vE8eoeEl_4core3ops5rangeINtB5_14RangeInclusivehE8is_emptyCs19MhURV36j2_4emkk
   872: ffff80000003a8d0    74 FUNC    LOCAL  DEFAULT    2 _RNvMs8_NtNtCs3i3vE8eoeEl_4core3ops5rangeINtB5_14RangeInclusivemE8is_emptyCs19MhURV36j2_4emkk
   873: ffff80000003aba0   210 FUNC    LOCAL  DEFAULT    2 _RNvXs2_NtNtCs3i3vE8eoeEl_4core5slice5indexINtNtNtB9_3ops5range5RangejEINtB5_10SliceIndexSTmmEE9index_mutCs19MhURV36j2_4emkk
   874: ffff80000003ac80   111 FUNC    LOCAL  DEFAULT    2 _RNvXs3_NtNtCs3i3vE8eoeEl_4core4iter5rangeINtNtNtB9_3ops5range5RangelENtB5_17RangeIteratorImpl9spec_nextCs19MhURV36j2_4emkk
   875: ffff80000003acf0   111 FUNC    LOCAL  DEFAULT    2 _RNvXs3_NtNtCs3i3vE8eoeEl_4core4iter5rangeINtNtNtB9_3ops5range5RangemENtB5_17RangeIteratorImpl9spec_nextCs19MhURV36j2_4emkk
   876: ffff80000003ad60   124 FUNC    LOCAL  DEFAULT    2 _RNvXs3_NtNtCs3i3vE8eoeEl_4core4iter5rangeINtNtNtB9_3ops5range5RangeyENtB5_17RangeIteratorImpl9spec_nextCs19MhURV36j2_4emkk
   877: ffff80000003ae40   170 FUNC    LOCAL  DEFAULT    2 _RNvXsc_NtNtCs3i3vE8eoeEl_4core4iter5rangeINtNtNtB9_3ops5range14RangeInclusivehENtB5_26RangeInclusiveIteratorImpl9spec_nextCs19MhURV36j2_4emkk
   878: ffff80000003aef0   156 FUNC    LOCAL  DEFAULT    2 _RNvXsc_NtNtCs3i3vE8eoeEl_4core4iter5rangeINtNtNtB9_3ops5range14RangeInclusivemENtB5_26RangeInclusiveIteratorImpl9spec_nextCs19MhURV36j2_4emkk
   879: ffff80000003a9b0    14 FUNC    LOCAL  HIDDEN     2 _RNvXNtNtNtCs3i3vE8eoeEl_4core4iter6traits7collectINtNtNtB8_3ops5range5RangemENtB2_12IntoIterator9into_iterCs19MhURV36j2_4emkk
   880: ffff80000003adf0    12 FUNC    LOCAL  HIDDEN     2 _RNvXs4_NtNtCs3i3vE8eoeEl_4core4iter5rangeINtNtNtB9_3ops5range5RangemENtNtNtB7_6traits8iterator8Iterator4nextCs19MhURV36j2_4emkk
   881: ffff80000003a980    22 FUNC    LOCAL  HIDDEN     2 _RNvXNtNtNtCs3i3vE8eoeEl_4core4iter6traits7collectINtNtNtB8_3ops5range5RangehENtB2_12IntoIterator9into_iterCs19MhURV36j2_4emkk
   882: ffff80000003a9c0    24 FUNC    LOCAL  HIDDEN     2 _RNvXNtNtNtCs3i3vE8eoeEl_4core4iter6traits7collectINtNtNtB8_3ops5range5RangeyENtB2_12IntoIterator9into_iterCs19MhURV36j2_4emkk
   883: ffff80000003ae00    12 FUNC    LOCAL  HIDDEN     2 _RNvXs4_NtNtCs3i3vE8eoeEl_4core4iter5rangeINtNtNtB9_3ops5range5RangeyENtNtNtB7_6traits8iterator8Iterator4nextCs19MhURV36j2_4emkk
   884: ffff80000003a9a0    14 FUNC    LOCAL  HIDDEN     2 _RNvXNtNtNtCs3i3vE8eoeEl_4core4iter6traits7collectINtNtNtB8_3ops5range5RangelENtB2_12IntoIterator9into_iterCs19MhURV36j2_4emkk
   885: ffff80000003ade0    12 FUNC    LOCAL  HIDDEN     2 _RNvXs4_NtNtCs3i3vE8eoeEl_4core4iter5rangeINtNtNtB9_3ops5range5RangelENtNtNtB7_6traits8iterator8Iterator4nextCs19MhURV36j2_4emkk
   886: ffff80000003a9e0   213 FUNC    LOCAL  HIDDEN     2 _RNvXs2_NtNtCs3i3vE8eoeEl_4core5slice5indexINtNtNtB9_3ops5range5RangejEINtB5_10SliceIndexSNtNtNtNtCs19MhURV36j2_4emkk3vfs3gfs17directory_hashmap21DirectoryHashmapEntryE9index_mutB1x_
   887: ffff80000003aac0   214 FUNC    LOCAL  HIDDEN     2 _RNvXs2_NtNtCs3i3vE8eoeEl_4core5slice5indexINtNtNtB9_3ops5range5RangejEINtB5_10SliceIndexSNtNtNtNtCs19MhURV36j2_4emkk3vfs3gfs17directory_hashmap22DirectoryHashmapBucketE9index_mutB1x_
   888: ffff80000003a810    49 FUNC    LOCAL  HIDDEN     2 _RNvMs5_NtNtCs3i3vE8eoeEl_4core3ops5rangeINtB5_14RangeInclusivehE3newCs19MhURV36j2_4emkk
   889: ffff80000003a850    22 FUNC    LOCAL  HIDDEN     2 _RNvMs5_NtNtCs3i3vE8eoeEl_4core3ops5rangeINtB5_14RangeInclusivemE3newCs19MhURV36j2_4emkk
   890: ffff80000003a920    76 FUNC    LOCAL  HIDDEN     2 _RNvXNtNtNtCs3i3vE8eoeEl_4core4iter6traits7collectINtNtNtB8_3ops5range14RangeInclusivehENtB2_12IntoIterator9into_iterCs19MhURV36j2_4emkk
   891: ffff80000003a970    16 FUNC    LOCAL  HIDDEN     2 _RNvXNtNtNtCs3i3vE8eoeEl_4core4iter6traits7collectINtNtNtB8_3ops5range14RangeInclusivemENtB2_12IntoIterator9into_iterCs19MhURV36j2_4emkk
   892: ffff80000003ae10    44 FUNC    LOCAL  HIDDEN     2 _RNvXs4_NtNtCs3i3vE8eoeEl_4core5slice5indexINtNtNtB9_3ops5range7RangeTojEINtB5_10SliceIndexSTmmEE9index_mutCs19MhURV36j2_4emkk
   893: ffff80000003af90    12 FUNC    LOCAL  HIDDEN     2 _RNvXsd_NtNtCs3i3vE8eoeEl_4core4iter5rangeINtNtNtB9_3ops5range14RangeInclusivehENtNtNtB7_6traits8iterator8Iterator4nextCs19MhURV36j2_4emkk
   894: ffff80000003afa0    12 FUNC    LOCAL  HIDDEN     2 _RNvXsd_NtNtCs3i3vE8eoeEl_4core4iter5rangeINtNtNtB9_3ops5range14RangeInclusivemENtNtNtB7_6traits8iterator8Iterator4nextCs19MhURV36j2_4emkk
   895: 0000000000000000     0 FILE    LOCAL  DEFAULT  ABS 8aiyp329zuajs624kb88cpz6k
   896: ffff80000003afb0    29 FUNC    LOCAL  HIDDEN     2 _RNvXs1g_NtCs3i3vE8eoeEl_4core3fmtRNtNtNtCs19MhURV36j2_4emkk7drivers4disk12DiskIOResultNtB6_5Debug3fmtBC_
   897: 0000000000000000     0 FILE    LOCAL  DEFAULT  ABS 8gk8b87co3y5ixf3ny737gcqc
   898: ffff80000003afd0    52 FUNC    LOCAL  HIDDEN     2 _RNvMNtNtCs19MhURV36j2_4emkk4arch5lapicNtB2_9LocalApic15from_local_core
   899: ffff80000003b650   113 FUNC    LOCAL  HIDDEN     2 _RNvMNtNtCs19MhURV36j2_4emkk4arch5lapicNtB2_9LocalApic8send_eoi
   900: ffff80000003b5f0    95 FUNC    LOCAL  HIDDEN     2 _RNvMNtNtCs19MhURV36j2_4emkk4arch5lapicNtB2_9LocalApic6get_id
   901: ffff80000003b1c0  1070 FUNC    LOCAL  HIDDEN     2 _RNvMNtNtCs19MhURV36j2_4emkk4arch5lapicNtB2_9LocalApic5reset
   902: ffff80000003b6d0   467 FUNC    LOCAL  HIDDEN     2 _RNvMNtNtCs19MhURV36j2_4emkk4arch5lapicNtB2_9LocalApic8send_ipi
   903: ffff80000003b010   417 FUNC    LOCAL  HIDDEN     2 _RNvMNtNtCs19MhURV36j2_4emkk4arch5lapicNtB2_9LocalApic16send_startup_ipi
   904: 0000000000000000     0 FILE    LOCAL  DEFAULT  ABS 8hljqp7jcoivzdxxoamtztylk
   905: ffff80000003d440     8 FUNC    LOCAL  DEFAULT    2 _RNvNtCs19MhURV36j2_4emkk3hal10___kend_ptr
   906: ffff80000003c780    64 FUNC    LOCAL  HIDDEN     2 _RNvMNtCs19MhURV36j2_4emkk3halNtB2_11SystemTable20discover_acpi_tables
   907: ffff80000003c7c0    57 FUNC    LOCAL  HIDDEN     2 _RNvMNtCs19MhURV36j2_4emkk3halNtB2_11SystemTable20discover_pci_devices
   908: ffff80000003cca0   741 FUNC    LOCAL  HIDDEN     2 _RNvMNtCs19MhURV36j2_4emkk3halNtB2_11SystemTable25initialize_multithreading
   909: ffff80000003bf80   485 FUNC    LOCAL  HIDDEN     2 _RNvMNtCs19MhURV36j2_4emkk3halNtB2_11SystemTable15initialize_apic
   910: ffff80000003c170   396 FUNC    LOCAL  HIDDEN     2 _RNvMNtCs19MhURV36j2_4emkk3halNtB2_11SystemTable15initialize_hpet
   911: ffff80000003c560   173 FUNC    LOCAL  HIDDEN     2 _RNvMNtCs19MhURV36j2_4emkk3halNtB2_11SystemTable17enable_interrupts
   912: ffff80000003c300    84 FUNC    LOCAL  HIDDEN     2 _RNvMNtCs19MhURV36j2_4emkk3halNtB2_11SystemTable16initialize_cores
   913: ffff80000003b8e0  1602 FUNC    LOCAL  HIDDEN     2 _RNvMNtCs19MhURV36j2_4emkk3halNtB2_11SystemTable14initialize_aml
   914: ffff80000003c360   506 FUNC    LOCAL  HIDDEN     2 _RNvMNtCs19MhURV36j2_4emkk3halNtB2_11SystemTable16route_interrupts
   915: ffff80000003bf30    67 FUNC    LOCAL  HIDDEN     2 _RNvMNtCs19MhURV36j2_4emkk3halNtB2_11SystemTable14initialize_usb
   916: ffff80000003c610   353 FUNC    LOCAL  HIDDEN     2 _RNvMNtCs19MhURV36j2_4emkk3halNtB2_11SystemTable19initialize_keyboard
   917: ffff80000003c840   881 FUNC    LOCAL  HIDDEN     2 _RNvMNtCs19MhURV36j2_4emkk3halNtB2_11SystemTable23initialize_disk_drivers
   918: ffff80000003cbc0   211 FUNC    LOCAL  HIDDEN     2 _RNvMNtCs19MhURV36j2_4emkk3halNtB2_11SystemTable23initialize_file_systems
   919: ffff80000003cf90   595 FUNC    LOCAL  HIDDEN     2 _RNvMNtCs19MhURV36j2_4emkk3halNtB2_11SystemTable28initialize_executable_loader
   920: ffff80000003c800    52 FUNC    LOCAL  HIDDEN     2 _RNvMNtCs19MhURV36j2_4emkk3halNtB2_11SystemTable21load_system_libraries
   921: ffff80000003d1f0    91 FUNC    LOCAL  HIDDEN     2 _RNvMNtCs19MhURV36j2_4emkk3halNtB2_11SystemTable4test
   922: ffff80000003b8b0    36 FUNC    LOCAL  HIDDEN     2 _RNvMNtCs19MhURV36j2_4emkk3halNtB2_11SystemTable14get_acpi_table
   923: ffff80000003d250   277 FUNC    LOCAL  HIDDEN     2 _RNvMNtCs19MhURV36j2_4emkk3halNtB2_11SystemTable7page_4k
   924: ffff80000003d370   195 FUNC    LOCAL  HIDDEN     2 _RNvMNtCs19MhURV36j2_4emkk3halNtB2_11SystemTable9unpage_4k
   925: 0000000000000000     0 FILE    LOCAL  DEFAULT  ABS 8qfevsz44pzqfpi4nah76wec6
   926: ffff80000003dd90   265 FUNC    LOCAL  HIDDEN     2 _RNvXNtNtCs19MhURV36j2_4emkk5utils6memoryNtB2_12MemoryResultNtNtCs3i3vE8eoeEl_4core3fmt5Debug3fmtB6_
   927: ffff80000003dc40   335 FUNC    LOCAL  HIDDEN     2 _RNvNtNtCs19MhURV36j2_4emkk5utils6memory22memcmp_dword_unaligned
   928: 0000000000000000     0 FILE    LOCAL  DEFAULT  ABS 8tj45vsxk0iz2o2w79plwpp7f
   929: ffff80000003dea0    24 FUNC    LOCAL  HIDDEN     2 _RNvNtNtCs3i3vE8eoeEl_4core3str8converts19from_utf8_uncheckedCs19MhURV36j2_4emkk
   930: ffff80000003dec0    24 FUNC    LOCAL  HIDDEN     2 _RNvNtNtCs3i3vE8eoeEl_4core3str8converts23from_utf8_unchecked_mutCs19MhURV36j2_4emkk
   931: 0000000000000000     0 FILE    LOCAL  DEFAULT  ABS 9059upynqjitqa1mcjzgk350e
   932: ffff80000003df70  2052 FUNC    LOCAL  DEFAULT    2 _RNvMs2_NtNtCs19MhURV36j2_4emkk9processes2peNtB5_6PeCoff10load_edata
   933: ffff80000003e780   614 FUNC    LOCAL  DEFAULT    2 _RNvMs2_NtNtCs19MhURV36j2_4emkk9processes2peNtB5_6PeCoff10load_idata
   934: ffff80000003e9f0   614 FUNC    LOCAL  DEFAULT    2 _RNvMs2_NtNtCs19MhURV36j2_4emkk9processes2peNtB5_6PeCoff10load_reloc
   935: ffff80000003ec60    58 FUNC    LOCAL  DEFAULT    2 _RNvMs2_NtNtCs19MhURV36j2_4emkk9processes2peNtB5_6PeCoff13page_sections
   936: ffff800000041240   270 FUNC    LOCAL  DEFAULT    2 _RNvNtNtCs19MhURV36j2_4emkk9processes2pe20find_section_for_rva
   937: ffff80000003ecd0  1392 FUNC    LOCAL  DEFAULT    2 _RNvMs2_NtNtCs19MhURV36j2_4emkk9processes2peNtB5_6PeCoff20load_optional_header
   938: ffff80000003f240  1397 FUNC    LOCAL  DEFAULT    2 _RNvMs2_NtNtCs19MhURV36j2_4emkk9processes2peNtB5_6PeCoff25load_plus_optional_header
   939: ffff80000003f7c0  1538 FUNC    LOCAL  DEFAULT    2 _RNvMs2_NtNtCs19MhURV36j2_4emkk9processes2peNtB5_6PeCoff4load
   940: ffff800000040290  1245 FUNC    LOCAL  DEFAULT    2 _RNvMs3_NtNtCs19MhURV36j2_4emkk9processes2peNtB5_5NtDll4load
   941: ffff80000003eca0    45 FUNC    LOCAL  HIDDEN     2 _RNvMs2_NtNtCs19MhURV36j2_4emkk9processes2peNtB5_6PeCoff20find_section_for_rva
   942: ffff80000003dee0   132 FUNC    LOCAL  HIDDEN     2 _RNvMs0_NtNtCs19MhURV36j2_4emkk9processes2peNtB5_27PeImportLookupTableIterator3new
   943: ffff800000040770    29 FUNC    LOCAL  HIDDEN     2 _RNvMs_NtNtCs19MhURV36j2_4emkk9processes2peNtB4_14PeAddressTable3new
   944: ffff800000040980   461 FUNC    LOCAL  HIDDEN     2 _RNvNtNtCs19MhURV36j2_4emkk9processes2pe11load_nt_dll
   945: ffff800000040260    42 FUNC    LOCAL  HIDDEN     2 _RNvMs3_NtNtCs19MhURV36j2_4emkk9processes2peNtB5_5NtDll10reallocate
   946: ffff80000003fdd0  1165 FUNC    LOCAL  HIDDEN     2 _RNvMs3_NtNtCs19MhURV36j2_4emkk9processes2peNtB5_5NtDll10get_export
   947: ffff800000040790   485 FUNC    LOCAL  HIDDEN     2 _RNvMs_NtNtCs19MhURV36j2_4emkk9processes2peNtB4_14PeAddressTable5write
   948: ffff800000041350   522 FUNC    LOCAL  HIDDEN     2 _RNvXs1_NtNtCs19MhURV36j2_4emkk9processes2peNtB5_27PeImportLookupTableIteratorNtNtNtNtCs3i3vE8eoeEl_4core4iter6traits8iterator8Iterator4next
   949: ffff800000040b50   483 FUNC    LOCAL  HIDDEN     2 _RNvNtNtCs19MhURV36j2_4emkk9processes2pe15get_nt_dll_name
   950: ffff800000040d40  1275 FUNC    LOCAL  HIDDEN     2 _RNvNtNtCs19MhURV36j2_4emkk9processes2pe18load_pe_executable
   951: 0000000000000000     0 FILE    LOCAL  DEFAULT  ABS 933gnkfcjeff0s354gm8p82ub
   952: ffff800000041560   275 FUNC    LOCAL  DEFAULT    2 _RNvMs_NtNtNtCs19MhURV36j2_4emkk3vfs3gfs16string_allocatorNtB4_18GfsStringAllocator11string_type
   953: ffff800000042750  1278 FUNC    LOCAL  HIDDEN     2 _RNvMs_NtNtNtCs19MhURV36j2_4emkk3vfs3gfs16string_allocatorNtB4_18GfsStringAllocator9as_string
   954: ffff800000041b50    60 FUNC    LOCAL  HIDDEN     2 _RNvMs_NtNtNtCs19MhURV36j2_4emkk3vfs3gfs16string_allocatorNtB4_18GfsStringAllocator7compare
   955: ffff800000041b90  3000 FUNC    LOCAL  HIDDEN     2 _RNvMs_NtNtNtCs19MhURV36j2_4emkk3vfs3gfs16string_allocatorNtB4_18GfsStringAllocator8allocate
   956: ffff800000041680  1219 FUNC    LOCAL  HIDDEN     2 _RNvMs_NtNtNtCs19MhURV36j2_4emkk3vfs3gfs16string_allocatorNtB4_18GfsStringAllocator3new
   957: 0000000000000000     0 FILE    LOCAL  DEFAULT  ABS 96tk1jcobs5qkrq3acweam4by
   958: ffff8000000a5960    16 OBJECT  LOCAL  DEFAULT    4 _RNvNtNtCs19MhURV36j2_4emkk9processes6loader19NT64_LIBRARIES_PATH
   959: ffff800000043230   259 FUNC    LOCAL  HIDDEN     2 _RNvNtNtCs19MhURV36j2_4emkk9processes6loader20load_executable_file
   960: ffff800000042c50    61 FUNC    LOCAL  HIDDEN     2 _RNvMs0_NtNtCs19MhURV36j2_4emkk9processes6loaderNtB5_19FullExecutableImage7extract
   961: ffff800000042c90   146 FUNC    LOCAL  HIDDEN     2 _RNvMs1_NtNtCs19MhURV36j2_4emkk9processes6loaderNtB5_15ExecutableImage5empty
   962: ffff800000042d30   525 FUNC    LOCAL  HIDDEN     2 _RNvMs_NtNtCs19MhURV36j2_4emkk9processes6loaderNtB4_15LoaderResources26load_nt64_system_libraries
   963: ffff800000042f40   505 FUNC    LOCAL  HIDDEN     2 _RNvMs_NtNtCs19MhURV36j2_4emkk9processes6loaderNtB4_15LoaderResources3new
   964: ffff800000043220    10 FUNC    LOCAL  HIDDEN     2 _RNvMs_NtNtCs19MhURV36j2_4emkk9processes6loaderNtB4_15LoaderResources8ref_nt64
   965: ffff800000043140   221 FUNC    LOCAL  HIDDEN     2 _RNvMs_NtNtCs19MhURV36j2_4emkk9processes6loaderNtB4_15LoaderResources8find_dll
   966: 0000000000000000     0 FILE    LOCAL  DEFAULT  ABS 99vnv7y7605ab6cyi1015iuor
   967: ffff800000043340   149 FUNC    LOCAL  DEFAULT    2 _RNvMNtNtCs19MhURV36j2_4emkk9processes10mark_tableNtB2_15MarkTableBucket11append_pair
   968: ffff8000000433e0   182 FUNC    LOCAL  DEFAULT    2 _RNvMNtNtCs19MhURV36j2_4emkk9processes10mark_tableNtB2_15MarkTableBucket8contains
   969: ffff800000043a40   184 FUNC    LOCAL  DEFAULT    2 _RNvMs_NtNtCs19MhURV36j2_4emkk9processes10mark_tableNtB4_9MarkTable4hash
   970: ffff800000044010   131 FUNC    LOCAL  HIDDEN     2 _RNvMs_NtNtCs19MhURV36j2_4emkk9processes10mark_tableNtB4_9MarkTable8contains
   971: ffff800000043b00  1281 FUNC    LOCAL  HIDDEN     2 _RNvMs_NtNtCs19MhURV36j2_4emkk9processes10mark_tableNtB4_9MarkTable6insert
   972: ffff8000000440a0   134 FUNC    LOCAL  HIDDEN     2 _RNvMs_NtNtCs19MhURV36j2_4emkk9processes10mark_tableNtB4_9MarkTable8increase
   973: ffff8000000434a0  1426 FUNC    LOCAL  HIDDEN     2 _RNvMs_NtNtCs19MhURV36j2_4emkk9processes10mark_tableNtB4_9MarkTable3new
   974: 0000000000000000     0 FILE    LOCAL  DEFAULT  ABS 9d6i13i5xzhesmlarb8538tnh
   975: ffff800000044130  1305 FUNC    LOCAL  HIDDEN     2 _RNCNvMs_NtNtCs19MhURV36j2_4emkk9processes6loaderNtB6_15LoaderResources26load_nt64_system_libraries0Ba_
   976: 0000000000000000     0 FILE    LOCAL  DEFAULT  ABS 9nqdbvg9acze95g4cg04qmi2l
   977: ffff800000044700   247 FUNC    LOCAL  DEFAULT    2 _RNvMs0_NtNtCs19MhURV36j2_4emkk3aml11name_systemNtB5_10NameSystem11insert_name
   978: ffff800000044800   620 FUNC    LOCAL  DEFAULT    2 _RNvMs0_NtNtCs19MhURV36j2_4emkk3aml11name_systemNtB5_10NameSystem12can_continue
   979: ffff800000044a70   285 FUNC    LOCAL  DEFAULT    2 _RNvMs0_NtNtCs19MhURV36j2_4emkk3aml11name_systemNtB5_10NameSystem18allocate_new_entry
   980: ffff800000044b90   513 FUNC    LOCAL  DEFAULT    2 _RNvMs0_NtNtCs19MhURV36j2_4emkk3aml11name_systemNtB5_10NameSystem23attach_reference_bucket
   981: ffff800000045840     9 FUNC    LOCAL  DEFAULT    2 _RNvXNtNtCs19MhURV36j2_4emkk3aml11name_systemNtB2_5EntryNtNtCs3i3vE8eoeEl_4core7default7Default7default
   982: ffff8000000454d0   875 FUNC    LOCAL  HIDDEN     2 _RNvMs0_NtNtCs19MhURV36j2_4emkk3aml11name_systemNtB5_10NameSystem7get_mut
   983: ffff800000044ef0   812 FUNC    LOCAL  HIDDEN     2 _RNvMs0_NtNtCs19MhURV36j2_4emkk3aml11name_systemNtB5_10NameSystem3get
   984: ffff800000044650   165 FUNC    LOCAL  HIDDEN     2 _RNvMs0_NtNtCs19MhURV36j2_4emkk3aml11name_systemNtB5_10NameSystem10new_system
   985: ffff800000044da0   325 FUNC    LOCAL  HIDDEN     2 _RNvMs0_NtNtCs19MhURV36j2_4emkk3aml11name_systemNtB5_10NameSystem3add
   986: ffff800000045220   685 FUNC    LOCAL  HIDDEN     2 _RNvMs0_NtNtCs19MhURV36j2_4emkk3aml11name_systemNtB5_10NameSystem3new
   987: ffff800000045850   326 FUNC    LOCAL  HIDDEN     2 _RNvXs_NtNtCs19MhURV36j2_4emkk3aml11name_systemNtB4_10NameSystemNtNtCs3i3vE8eoeEl_4core7default7Default7default
   988: 0000000000000000     0 FILE    LOCAL  DEFAULT  ABS a0t8l9yosveti0ufzrqrrwuns
   989: ffff800000045a80   103 FUNC    LOCAL  HIDDEN     2 _RNCNvMNtCs19MhURV36j2_4emkk3halNtB4_11SystemTable23initialize_disk_drivers0B6_
   990: ffff800000045af0   430 FUNC    LOCAL  HIDDEN     2 _RNCNvMNtCs19MhURV36j2_4emkk3halNtB4_11SystemTable28initialize_executable_loader0B6_
   991: ffff8000000459a0    57 FUNC    LOCAL  HIDDEN     2 _RNCNCNvMNtCs19MhURV36j2_4emkk3halNtB6_11SystemTable28initialize_executable_loader00B8_
   992: ffff8000000459e0    72 FUNC    LOCAL  HIDDEN     2 _RNCNCNvMNtCs19MhURV36j2_4emkk3halNtB6_11SystemTable28initialize_executable_loader0s0_0B8_
   993: ffff800000045a30    72 FUNC    LOCAL  HIDDEN     2 _RNCNCNvMNtCs19MhURV36j2_4emkk3halNtB6_11SystemTable28initialize_executable_loader0s_0B8_
   994: ffff800000045ca0    44 FUNC    LOCAL  HIDDEN     2 _RNCNvMNtCs19MhURV36j2_4emkk3halNtB4_11SystemTable4test0B6_
   995: 0000000000000000     0 FILE    LOCAL  DEFAULT  ABS a16mvj6irk68m1yl7kksqi3oc
   996: ffff800000046120    52 FUNC    LOCAL  DEFAULT    2 _RNvMNtNtCs3i3vE8eoeEl_4core3ptr7mut_ptrONtNtNtNtCs19MhURV36j2_4emkk3vfs3gfs9directory12GfsDirectory6as_mutBK_
   997: ffff800000046160    26 FUNC    LOCAL  DEFAULT    2 _RNvMNtNtCs3i3vE8eoeEl_4core3ptr7mut_ptrONtNtNtNtCs19MhURV36j2_4emkk3vfs3gfs9directory12GfsDirectory7is_nullBK_
   998: ffff800000046180    26 FUNC    LOCAL  DEFAULT    2 _RNvMNtNtCs3i3vE8eoeEl_4core3ptr9const_ptrPNtNtNtNtCs19MhURV36j2_4emkk3vfs3gfs9directory12GfsDirectory7is_nullBM_
   999: ffff800000045cd0  1099 FUNC    LOCAL  HIDDEN     2 _RNCNvMNtNtNtCs19MhURV36j2_4emkk3vfs3gfs9directoryNtB4_12GfsDirectory14open_directory0Ba_
  1000: 0000000000000000     0 FILE    LOCAL  DEFAULT  ABS a1uwd52jnuprqn1gq4o1y8umo
  1001: ffff800000046200   202 FUNC    LOCAL  HIDDEN     2 _RNCNvMs_NtNtCs19MhURV36j2_4emkk3vfs3gfsNtB6_17GeneralFileSystem13send_sync_ipi0Ba_
  1002: ffff8000000461a0    90 FUNC    LOCAL  HIDDEN     2 _RNCNCNvMs_NtNtCs19MhURV36j2_4emkk3vfs3gfsNtB8_17GeneralFileSystem13send_sync_ipi00Bc_
  1003: ffff8000000462d0   156 FUNC    LOCAL  HIDDEN     2 _RNvMNtNtCs3i3vE8eoeEl_4core3ptr9const_ptrPNtNtNtCs19MhURV36j2_4emkk3vfs3gfs5GfsFs20offset_from_unsignedBK_
  1004: 0000000000000000     0 FILE    LOCAL  DEFAULT  ABS ap3tk68xlo27fmm9s7dmk81rt
  1005: ffff800000046370   331 FUNC    LOCAL  HIDDEN     2 _RNCNvMs_NtNtCs19MhURV36j2_4emkk4arch4apicNtB6_4Apic12register_gsi0Ba_
  1006: ffff8000000464c0   839 FUNC    LOCAL  HIDDEN     2 _RNCNvMs_NtNtCs19MhURV36j2_4emkk4arch4apicNtB6_4Apic22write_and_register_gsi0Ba_
  1007: ffff800000046810   290 FUNC    LOCAL  HIDDEN     2 _RNCNvMs_NtNtCs19MhURV36j2_4emkk4arch4apicNtB6_4Apic3new0Ba_
  1008: ffff800000046940   550 FUNC    LOCAL  HIDDEN     2 _RNCNvMs_NtNtCs19MhURV36j2_4emkk4arch4apicNtB6_4Apic9write_gsi0Ba_
  1009: 0000000000000000     0 FILE    LOCAL  DEFAULT  ABS avxpounwuu8sfbzw2mpc6s4tt
  1010: ffff800000048ab0    51 FUNC    LOCAL  DEFAULT    2 _RNvXs2_NtNtCs19MhURV36j2_4emkk3hal7pci_busNtB5_7BarTypeNtNtCs3i3vE8eoeEl_4core3cmp9PartialEq2eqB9_
  1011: ffff800000046d30  3081 FUNC    LOCAL  DEFAULT    2 _RNvMs0_NtNtCs19MhURV36j2_4emkk3hal7pci_busNtB5_6PciBus10initialize
  1012: ffff800000048af0    32 FUNC    LOCAL  DEFAULT    2 _RNvXs3_NtNtCs19MhURV36j2_4emkk3hal7pci_busNtB5_30EnhancedConfigurationMechanismNtNtCs3i3vE8eoeEl_4core7default7Default7defaultB9_
  1013: ffff800000047940    51 FUNC    LOCAL  DEFAULT    2 _RNvMs0_NtNtCs19MhURV36j2_4emkk3hal7pci_busNtB5_6PciBus14compress_ident
  1014: ffff800000047c60   330 FUNC    LOCAL  HIDDEN     2 _RNvMs0_NtNtCs19MhURV36j2_4emkk3hal7pci_busNtB5_6PciBus17enable_bus_master
  1015: ffff800000047db0   327 FUNC    LOCAL  HIDDEN     2 _RNvMs0_NtNtCs19MhURV36j2_4emkk3hal7pci_busNtB5_6PciBus17enable_interrupts
  1016: ffff800000048120  1861 FUNC    LOCAL  HIDDEN     2 _RNvMs0_NtNtCs19MhURV36j2_4emkk3hal7pci_busNtB5_6PciBus7get_bar
  1017: ffff800000046b90   413 FUNC    LOCAL  HIDDEN     2 _RNvMNtNtCs19MhURV36j2_4emkk3hal7pci_busNtB2_6PciBar14map_to_virtual
  1018: ffff800000046b80    10 FUNC    LOCAL  HIDDEN     2 _RNvMNtNtCs19MhURV36j2_4emkk3hal7pci_busNtB2_6PciBar11get_address
  1019: ffff800000047980   664 FUNC    LOCAL  HIDDEN     2 _RNvMs0_NtNtCs19MhURV36j2_4emkk3hal7pci_busNtB5_6PciBus15find_pci_device
  1020: ffff800000047c20    55 FUNC    LOCAL  HIDDEN     2 _RNvMs0_NtNtCs19MhURV36j2_4emkk3hal7pci_busNtB5_6PciBus16decompress_ident
  1021: ffff8000000480d0    77 FUNC    LOCAL  HIDDEN     2 _RNvMs0_NtNtCs19MhURV36j2_4emkk3hal7pci_busNtB5_6PciBus3new
  1022: ffff800000048b10    82 FUNC    LOCAL  HIDDEN     2 _RNvXs_NtNtCs19MhURV36j2_4emkk3hal7pci_busNtB4_6PciBusNtNtCs3i3vE8eoeEl_4core7default7Default7default
  1023: ffff800000046b70    10 FUNC    LOCAL  HIDDEN     2 _RNvMNtNtCs19MhURV36j2_4emkk3hal7pci_busNtB2_6PciBar10get_length
  1024: ffff800000048870   566 FUNC    LOCAL  HIDDEN     2 _RNvMs0_NtNtCs19MhURV36j2_4emkk3hal7pci_busNtB5_6PciBus8pci_base
  1025: ffff800000047f00   214 FUNC    LOCAL  HIDDEN     2 _RNvMs0_NtNtCs19MhURV36j2_4emkk3hal7pci_busNtB5_6PciBus28read_configuration_space_u32
  1026: ffff800000047fe0   233 FUNC    LOCAL  HIDDEN     2 _RNvMs0_NtNtCs19MhURV36j2_4emkk3hal7pci_busNtB5_6PciBus29write_configuration_space_u32
  1027: 0000000000000000     0 FILE    LOCAL  DEFAULT  ABS avxx4vo53kdc29h6yg50cnmug
  1028: ffff800000048ce0    61 FUNC    LOCAL  DEFAULT    2 _RNvMNtCs3i3vE8eoeEl_4core6optionINtB2_6OptionIBv_ReEE6as_mutCs19MhURV36j2_4emkk
  1029: ffff800000048db0    65 FUNC    LOCAL  DEFAULT    2 _RNvMNtCs3i3vE8eoeEl_4core6optionINtB2_6OptionQIBv_ReEE16unwrap_uncheckedCs19MhURV36j2_4emkk
  1030: ffff800000048d30    61 FUNC    LOCAL  DEFAULT    2 _RNvMNtCs3i3vE8eoeEl_4core6optionINtB2_6OptionIBv_RmEE6as_mutCs19MhURV36j2_4emkk
  1031: ffff800000048e00    65 FUNC    LOCAL  DEFAULT    2 _RNvMNtCs3i3vE8eoeEl_4core6optionINtB2_6OptionQIBv_RmEE16unwrap_uncheckedCs19MhURV36j2_4emkk
  1032: ffff800000048e60    58 FUNC    LOCAL  DEFAULT    2 _RNvMNtCs3i3vE8eoeEl_4core6optionINtB2_6OptionRReE7is_someCs19MhURV36j2_4emkk
  1033: ffff800000048eb0    58 FUNC    LOCAL  DEFAULT    2 _RNvMNtCs3i3vE8eoeEl_4core6optionINtB2_6OptionRRmE7is_someCs19MhURV36j2_4emkk
  1034: ffff800000049010    26 FUNC    LOCAL  DEFAULT    2 _RNvMNtNtCs3i3vE8eoeEl_4core3ptr9const_ptrPOINtNtB6_6option6OptiontE7is_nullCs19MhURV36j2_4emkk
  1035: ffff8000000490e0    70 FUNC    LOCAL  HIDDEN     2 _RNvXsJ_NtCs3i3vE8eoeEl_4core6optionINtB5_6OptionRNtNtNtCs19MhURV36j2_4emkk3pfs3gpt17GptPartitionEntryENtNtNtB7_3ops9try_trait3Try6branchBR_
  1036: ffff800000049160    13 FUNC    LOCAL  HIDDEN     2 _RNvXsK_NtCs3i3vE8eoeEl_4core6optionINtB5_6OptionTjRNtNtNtCs19MhURV36j2_4emkk3pfs3gpt17GptPartitionEntryEEINtNtNtB7_3ops9try_trait12FromResidualIBy_NtNtB7_7convert10InfallibleEE13from_residualBT_
  1037: ffff800000049090    70 FUNC    LOCAL  HIDDEN     2 _RNvXsJ_NtCs3i3vE8eoeEl_4core6optionINtB5_6OptionQNtNtNtNtCs19MhURV36j2_4emkk3vfs3gfs17directory_hashmap22DirectoryHashmapBucketENtNtNtB7_3ops9try_trait3Try6branchBT_
  1038: ffff800000049150    13 FUNC    LOCAL  HIDDEN     2 _RNvXsK_NtCs3i3vE8eoeEl_4core6optionINtB5_6OptionTjQNtNtNtNtCs19MhURV36j2_4emkk3vfs3gfs17directory_hashmap22DirectoryHashmapBucketEEINtNtNtB7_3ops9try_trait12FromResidualIBy_NtNtB7_7convert10InfallibleEE13from_residualBV_
  1039: ffff800000049030    93 FUNC    LOCAL  HIDDEN     2 _RNvXsJ_NtCs3i3vE8eoeEl_4core6optionINtB5_6OptionNtNtNtCs19MhURV36j2_4emkk9processes2pe6PeItemENtNtNtB7_3ops9try_trait3Try6branchBQ_
  1040: ffff800000049130    31 FUNC    LOCAL  HIDDEN     2 _RNvXsK_NtCs3i3vE8eoeEl_4core6optionINtB5_6OptionTjNtNtNtCs19MhURV36j2_4emkk9processes2pe6PeItemEEINtNtNtB7_3ops9try_trait12FromResidualIBy_NtNtB7_7convert10InfallibleEE13from_residualBS_
  1041: ffff800000048f90    50 FUNC    LOCAL  HIDDEN     2 _RNvMNtCs3i3vE8eoeEl_4core6optionINtB2_6OptionlE16unwrap_uncheckedCs19MhURV36j2_4emkk
  1042: ffff800000048fd0    52 FUNC    LOCAL  HIDDEN     2 _RNvMNtNtCs3i3vE8eoeEl_4core3ptr9const_ptrPOINtNtB6_6option6OptiontE6as_refCs19MhURV36j2_4emkk
  1043: ffff800000048d70    54 FUNC    LOCAL  HIDDEN     2 _RNvMNtCs3i3vE8eoeEl_4core6optionINtB2_6OptionNtNtNtCs19MhURV36j2_4emkk5utils6memory12MemoryResultE7is_someBN_
  1044: ffff800000048b70   162 FUNC    LOCAL  HIDDEN     2 _RINvMNtCs3i3vE8eoeEl_4core6optionINtB3_6OptionIBw_ReEE18get_or_insert_withNCNvMs3_NtNtNtB5_4iter8adapters8peekableINtB1i_8PeekableINtNtNtB5_3str4iter15SplitTerminatorcEE4peek0ECs19MhURV36j2_4emkk
  1045: ffff800000048c20   130 FUNC    LOCAL  HIDDEN     2 _RINvMNtCs3i3vE8eoeEl_4core6optionINtB3_6OptionIBw_RmEE18get_or_insert_withNCNvMs3_NtNtNtB5_4iter8adapters8peekableINtB1i_8PeekableINtNtNtB5_5slice4iter4ItermEE4peek0ECs19MhURV36j2_4emkk
  1046: ffff800000048cb0    44 FUNC    LOCAL  HIDDEN     2 _RNvMNtCs3i3vE8eoeEl_4core6optionINtB2_6OptionIBv_ReEE4takeCs19MhURV36j2_4emkk
  1047: ffff800000048d20    16 FUNC    LOCAL  HIDDEN     2 _RNvMNtCs3i3vE8eoeEl_4core6optionINtB2_6OptionIBv_RmEE4takeCs19MhURV36j2_4emkk
  1048: ffff800000048e50    16 FUNC    LOCAL  HIDDEN     2 _RNvMNtCs3i3vE8eoeEl_4core6optionINtB2_6OptionRReE7is_noneCs19MhURV36j2_4emkk
  1049: ffff800000048ea0    16 FUNC    LOCAL  HIDDEN     2 _RNvMNtCs3i3vE8eoeEl_4core6optionINtB2_6OptionRRmE7is_noneCs19MhURV36j2_4emkk
  1050: ffff800000048ef0    74 FUNC    LOCAL  HIDDEN     2 _RNvMNtCs3i3vE8eoeEl_4core6optionINtB2_6OptionReE6as_refCs19MhURV36j2_4emkk
  1051: ffff800000048f40    74 FUNC    LOCAL  HIDDEN     2 _RNvMNtCs3i3vE8eoeEl_4core6optionINtB2_6OptionRmE6as_refCs19MhURV36j2_4emkk
  1052: 0000000000000000     0 FILE    LOCAL  DEFAULT  ABS b33bfqn6z2wzdlhl9x3sy8ope
  1053: ffff800000049200    72 FUNC    LOCAL  DEFAULT    2 _RNvMs0_NtCs19MhURV36j2_4emkk14multithreadingNtB5_6IoApic3new
  1054: ffff800000049250    41 FUNC    LOCAL  DEFAULT    2 _RNvMs1_NtCs19MhURV36j2_4emkk14multithreadingNtB5_23MultithreadingLocalApic3new
  1055: ffff80000004ac00   100 FUNC    LOCAL  DEFAULT    2 _RNvMs_NtCs19MhURV36j2_4emkk14multithreadingNtB4_11GsiOverride3new
  1056: ffff80000004ac70     7 FUNC    LOCAL  HIDDEN     2 _RNvNtCs19MhURV36j2_4emkk14multithreading29local_apic_spurious_interrupt
  1057: ffff800000049280    10 FUNC    LOCAL  HIDDEN     2 _RNvMs1_NtCs19MhURV36j2_4emkk14multithreadingNtB5_23MultithreadingLocalApic6get_id
  1058: ffff80000004aaa0   352 FUNC    LOCAL  HIDDEN     2 _RNvMs3_NtCs19MhURV36j2_4emkk14multithreadingNtB5_14Multithreading9await_ipi
  1059: ffff800000049290    14 FUNC    LOCAL  HIDDEN     2 _RNvMs3_NtCs19MhURV36j2_4emkk14multithreadingNtB5_14Multithreading12get_io_apics
  1060: ffff800000049610    14 FUNC    LOCAL  HIDDEN     2 _RNvMs3_NtCs19MhURV36j2_4emkk14multithreadingNtB5_14Multithreading17get_gis_overrides
  1061: ffff8000000492a0   868 FUNC    LOCAL  HIDDEN     2 _RNvMs3_NtCs19MhURV36j2_4emkk14multithreadingNtB5_14Multithreading14activate_cores
  1062: ffff800000049620  5241 FUNC    LOCAL  HIDDEN     2 _RNvMs3_NtCs19MhURV36j2_4emkk14multithreadingNtB5_14Multithreading3new
  1063: ffff80000004ac80   301 FUNC    LOCAL  HIDDEN     2 _RNvXs2_NtCs19MhURV36j2_4emkk14multithreadingNtB5_14MultithreadingNtNtCs3i3vE8eoeEl_4core7default7Default7default
  1064: ffff800000049170   130 FUNC    LOCAL  HIDDEN     2 _RNvMNtCs19MhURV36j2_4emkk14multithreadingNtB2_6IoApic14write_register
  1065: 0000000000000000     0 FILE    LOCAL  DEFAULT  ABS b9h1gczrsqctgqr10xuxa5bqf
  1066: ffff80000004adad    80 FUNC    LOCAL  HIDDEN     2 _RINvNtCs3i3vE8eoeEl_4core9panicking13assert_failedbbECs19MhURV36j2_4emkk
  1067: 0000000000000000     0 FILE    LOCAL  DEFAULT  ABS be66h1bobl4ih204and8ujh9k
  1068: ffff80000004aea0   150 FUNC    LOCAL  HIDDEN     2 _RNvMs4_NtNtCs3i3vE8eoeEl_4core5slice4iterINtB5_4IterNtNtNtCs19MhURV36j2_4emkk3pfs5linux6Ext2FsE3newBU_
  1069: ffff80000004afe0   150 FUNC    LOCAL  HIDDEN     2 _RNvMsa_NtNtCs3i3vE8eoeEl_4core5slice4iterINtB5_7IterMutNtNtNtNtCs19MhURV36j2_4emkk3vfs3gfs17directory_hashmap22DirectoryHashmapBucketE3newBZ_
  1070: ffff80000004b080   167 FUNC    LOCAL  HIDDEN     2 _RNvXs2J_NtNtCs3i3vE8eoeEl_4core5slice4iterINtB6_4IterNtNtNtCs19MhURV36j2_4emkk3pfs3gpt17GptPartitionEntryENtNtNtNtBa_4iter6traits8iterator8Iterator4nextBV_
  1071: ffff80000004b290   157 FUNC    LOCAL  HIDDEN     2 _RNvXs2R_NtNtCs3i3vE8eoeEl_4core5slice4iterINtB6_7IterMutNtNtNtNtCs19MhURV36j2_4emkk3vfs3gfs17directory_hashmap22DirectoryHashmapBucketENtNtNtNtBa_4iter6traits8iterator8Iterator4nextB10_
  1072: ffff80000004b350    35 FUNC    LOCAL  HIDDEN     2 _RNvYINtNtNtCs3i3vE8eoeEl_4core5slice4iter4IterNtNtNtCs19MhURV36j2_4emkk3pfs3gpt17GptPartitionEntryENtNtNtNtB9_4iter6traits8iterator8Iterator9enumerateBO_
  1073: ffff80000004b3b0    35 FUNC    LOCAL  HIDDEN     2 _RNvYINtNtNtCs3i3vE8eoeEl_4core5slice4iter7IterMutNtNtNtNtCs19MhURV36j2_4emkk3vfs3gfs17directory_hashmap22DirectoryHashmapBucketENtNtNtNtB9_4iter6traits8iterator8Iterator9enumerateBT_
  1074: ffff80000004b330    24 FUNC    LOCAL  HIDDEN     2 _RNvXs_NtNtCs3i3vE8eoeEl_4core5slice4iterRSThyENtNtNtNtB8_4iter6traits7collect12IntoIterator9into_iterCs19MhURV36j2_4emkk
  1075: ffff80000004b1e0   164 FUNC    LOCAL  HIDDEN     2 _RNvXs2J_NtNtCs3i3vE8eoeEl_4core5slice4iterINtB6_4IterThyEENtNtNtNtBa_4iter6traits8iterator8Iterator4nextCs19MhURV36j2_4emkk
  1076: ffff80000004af40   150 FUNC    LOCAL  HIDDEN     2 _RNvMs4_NtNtCs3i3vE8eoeEl_4core5slice4iterINtB5_4IterThyEE3newCs19MhURV36j2_4emkk
  1077: ffff80000004ae00   150 FUNC    LOCAL  HIDDEN     2 _RNvMs4_NtNtCs3i3vE8eoeEl_4core5slice4iterINtB5_4IterNtNtNtCs19MhURV36j2_4emkk3pfs3gpt17GptPartitionEntryE3newBU_
  1078: ffff80000004b130   167 FUNC    LOCAL  HIDDEN     2 _RNvXs2J_NtNtCs3i3vE8eoeEl_4core5slice4iterINtB6_4IterNtNtNtCs19MhURV36j2_4emkk3pfs5linux6Ext2FsENtNtNtNtBa_4iter6traits8iterator8Iterator4nextBV_
  1079: ffff80000004b380    35 FUNC    LOCAL  HIDDEN     2 _RNvYINtNtNtCs3i3vE8eoeEl_4core5slice4iter4ItermENtNtNtNtB9_4iter6traits8iterator8Iterator8peekableCs19MhURV36j2_4emkk
  1080: 0000000000000000     0 FILE    LOCAL  DEFAULT  ABS blqnpwg7p9erbm2zpw6evhv9t
  1081: ffff80000004b3e0    36 FUNC    LOCAL  DEFAULT    2 _RNvMNtCs19MhURV36j2_4emkk11acpi_tablesNtB2_9AcpiTable3new
  1082: ffff80000004b420  2866 FUNC    LOCAL  DEFAULT    2 _RNvMs0_NtCs19MhURV36j2_4emkk11acpi_tablesNtB5_10AcpiTables10initialize
  1083: ffff80000004c0f0   101 FUNC    LOCAL  HIDDEN     2 _RNvXs4_NtCs19MhURV36j2_4emkk11acpi_tablesNtB5_11AcpiTableIdNtNtCs3i3vE8eoeEl_4core5clone5Clone5cloneB7_
  1084: ffff80000004c0c0    42 FUNC    LOCAL  HIDDEN     2 _RNvXs3_NtCs19MhURV36j2_4emkk11acpi_tablesNtB5_11AcpiTableIdNtNtCs3i3vE8eoeEl_4core3cmp9PartialEq2eqB7_
  1085: ffff80000004b410    10 FUNC    LOCAL  HIDDEN     2 _RNvMNtCs19MhURV36j2_4emkk11acpi_tablesNtB2_9AcpiTable7get_ptr
  1086: ffff80000004bfc0   152 FUNC    LOCAL  HIDDEN     2 _RNvMs0_NtCs19MhURV36j2_4emkk11acpi_tablesNtB5_10AcpiTables9get_table
  1087: ffff80000004c060    10 FUNC    LOCAL  HIDDEN     2 _RNvMs_NtCs19MhURV36j2_4emkk11acpi_tablesNtB4_16descriptor_table10get_length
  1088: ffff80000004bf60    92 FUNC    LOCAL  HIDDEN     2 _RNvMs0_NtCs19MhURV36j2_4emkk11acpi_tablesNtB5_10AcpiTables3new
  1089: ffff80000004c070    78 FUNC    LOCAL  HIDDEN     2 _RNvXs1_NtCs19MhURV36j2_4emkk11acpi_tablesNtB5_10AcpiTablesNtNtCs3i3vE8eoeEl_4core7default7Default7default
  1090: 0000000000000000     0 FILE    LOCAL  DEFAULT  ABS bs8jllgvyf6sa5d3g5oogi3tb
  1091: ffff80000004c210   616 FUNC    LOCAL  DEFAULT    2 _RNvMs_NtNtCs19MhURV36j2_4emkk3aml12field_systemNtB4_11FieldSystem12can_continue
  1092: ffff80000004c480   289 FUNC    LOCAL  DEFAULT    2 _RNvMs_NtNtCs19MhURV36j2_4emkk3aml12field_systemNtB4_11FieldSystem18allocate_new_entry
  1093: ffff80000004c5b0   509 FUNC    LOCAL  DEFAULT    2 _RNvMs_NtNtCs19MhURV36j2_4emkk3aml12field_systemNtB4_11FieldSystem23attach_reference_bucket
  1094: ffff80000004c970    23 FUNC    LOCAL  HIDDEN     2 _RNvMs_NtNtCs19MhURV36j2_4emkk3aml12field_systemNtB4_11FieldSystem9set_flags
  1095: ffff80000004c160   163 FUNC    LOCAL  HIDDEN     2 _RNvMs_NtNtCs19MhURV36j2_4emkk3aml12field_systemNtB4_11FieldSystem10new_system
  1096: ffff80000004c7b0   141 FUNC    LOCAL  HIDDEN     2 _RNvMs_NtNtCs19MhURV36j2_4emkk3aml12field_systemNtB4_11FieldSystem3add
  1097: ffff80000004c840   303 FUNC    LOCAL  HIDDEN     2 _RNvMs_NtNtCs19MhURV36j2_4emkk3aml12field_systemNtB4_11FieldSystem3new
  1098: ffff80000004c990   170 FUNC    LOCAL  HIDDEN     2 _RNvXNtNtCs19MhURV36j2_4emkk3aml12field_systemNtB2_11FieldSystemNtNtCs3i3vE8eoeEl_4core7default7Default7default
  1099: 0000000000000000     0 FILE    LOCAL  DEFAULT  ABS bvjll3ex59rikcghcqdzsi022
  1100: ffff80000004cae0   196 FUNC    LOCAL  DEFAULT    2 _RINvMNtCs3i3vE8eoeEl_4core3stre5splitcECs19MhURV36j2_4emkk
  1101: ffff80000004cbb0    62 FUNC    LOCAL  HIDDEN     2 _RINvMNtCs3i3vE8eoeEl_4core3stre9ends_withReECs19MhURV36j2_4emkk
  1102: ffff80000004ca40   147 FUNC    LOCAL  HIDDEN     2 _RINvMNtCs3i3vE8eoeEl_4core3stre16split_terminatorcECs19MhURV36j2_4emkk
  1103: 0000000000000000     0 FILE    LOCAL  DEFAULT  ABS bx7wy75oxd93ouhzk48m9qqmd
  1104: ffff80000004cbf0   120 FUNC    LOCAL  DEFAULT    2 _RNvMNtNtCs19MhURV36j2_4emkk3pfs5linuxNtB2_21PhysicalExt2Directory5empty
  1105: ffff80000004cc70  1517 FUNC    LOCAL  DEFAULT    2 _RNvMNtNtCs19MhURV36j2_4emkk3pfs5linuxNtB2_21PhysicalExt2Directory8contains
  1106: ffff80000004e4f0    92 FUNC    LOCAL  DEFAULT    2 _RNvMs_NtNtCs19MhURV36j2_4emkk3pfs5linuxNtB4_12PhysicalExt220block_group_of_inode
  1107: ffff80000004e850    94 FUNC    LOCAL  DEFAULT    2 _RNvMs_NtNtCs19MhURV36j2_4emkk3pfs5linuxNtB4_12PhysicalExt222index_into_block_group
  1108: ffff80000004e7c0   139 FUNC    LOCAL  DEFAULT    2 _RNvMs_NtNtCs19MhURV36j2_4emkk3pfs5linuxNtB4_12PhysicalExt222block_containing_inode
  1109: ffff80000004e670   333 FUNC    LOCAL  DEFAULT    2 _RNvMs_NtNtCs19MhURV36j2_4emkk3pfs5linuxNtB4_12PhysicalExt220load_inode_into_file
  1110: ffff80000004e550   279 FUNC    LOCAL  HIDDEN     2 _RNvMs_NtNtCs19MhURV36j2_4emkk3pfs5linuxNtB4_12PhysicalExt220directory_from_inode
  1111: ffff8000000507f0  1556 FUNC    LOCAL  HIDDEN     2 _RNvNtNtCs19MhURV36j2_4emkk3pfs5linux22scan_linux_file_system
  1112: ffff80000004d260  1187 FUNC    LOCAL  HIDDEN     2 _RNvMs_NtNtCs19MhURV36j2_4emkk3pfs5linuxNtB4_12PhysicalExt210read_inode
  1113: ffff80000004d710   128 FUNC    LOCAL  HIDDEN     2 _RNvMs_NtNtCs19MhURV36j2_4emkk3pfs5linuxNtB4_12PhysicalExt213root_contains
  1114: ffff80000004d790  3418 FUNC    LOCAL  HIDDEN     2 _RNvMs_NtNtCs19MhURV36j2_4emkk3pfs5linuxNtB4_12PhysicalExt218discover_directory
  1115: ffff80000004e8b0  1338 FUNC    LOCAL  HIDDEN     2 _RNvMs_NtNtCs19MhURV36j2_4emkk3pfs5linuxNtB4_12PhysicalExt232read_pointer_content_into_buffer
  1116: ffff80000004edf0  1988 FUNC    LOCAL  HIDDEN     2 _RNvMs_NtNtCs19MhURV36j2_4emkk3pfs5linuxNtB4_12PhysicalExt234read_singly_indirect_pointer_block
  1117: ffff80000004f5c0  2075 FUNC    LOCAL  HIDDEN     2 _RNvMs_NtNtCs19MhURV36j2_4emkk3pfs5linuxNtB4_12PhysicalExt24load
  1118: ffff80000004fde0  2576 FUNC    LOCAL  HIDDEN     2 _RNvMs_NtNtCs19MhURV36j2_4emkk3pfs5linuxNtB4_12PhysicalExt29load_root
  1119: 0000000000000000     0 FILE    LOCAL  DEFAULT  ABS c76hy6isynnjaicdxrbt0s65a
  1120: ffff800000050e50    26 FUNC    LOCAL  DEFAULT    2 _RNvMNtNtCs3i3vE8eoeEl_4core3ptr7mut_ptrONtNtNtNtNtNtCs19MhURV36j2_4emkk7drivers3usb4ehci10structures8endpoint12EhciEndpoint7is_nullBO_
  1121: ffff800000050e70    26 FUNC    LOCAL  DEFAULT    2 _RNvMNtNtCs3i3vE8eoeEl_4core3ptr9const_ptrPNtNtNtNtNtNtCs19MhURV36j2_4emkk7drivers3usb4ehci10structures8endpoint12EhciEndpoint7is_nullBQ_
  1122: ffff800000050e10    52 FUNC    LOCAL  HIDDEN     2 _RNvMNtNtCs3i3vE8eoeEl_4core3ptr7mut_ptrONtNtNtNtNtNtCs19MhURV36j2_4emkk7drivers3usb4ehci10structures8endpoint12EhciEndpoint6as_mutBO_
  1123: 0000000000000000     0 FILE    LOCAL  DEFAULT  ABS ccehyjpbuqwb9wy6lnonmigup
  1124: ffff800000050e90    24 FUNC    LOCAL  DEFAULT    2 _RNvMNtNtNtCs19MhURV36j2_4emkk3hal6memory5pagerNtB2_4Page3new
  1125: ffff800000054cc0   327 FUNC    LOCAL  DEFAULT    2 _RNvMs_NtNtNtCs19MhURV36j2_4emkk3hal6memory5pagerNtB4_12PointerTable3new
  1126: ffff8000000547a0   498 FUNC    LOCAL  DEFAULT    2 _RNvMs_NtNtNtCs19MhURV36j2_4emkk3hal6memory5pagerNtB4_12PointerTable11instantiate
  1127: ffff800000054730   100 FUNC    LOCAL  DEFAULT    2 _RNvMs_NtNtNtCs19MhURV36j2_4emkk3hal6memory5pagerNtB4_12PointerTable10read_flags
  1128: ffff800000054ab0   111 FUNC    LOCAL  DEFAULT    2 _RNvMs_NtNtNtCs19MhURV36j2_4emkk3hal6memory5pagerNtB4_12PointerTable16page_size_active
  1129: ffff800000051e20   337 FUNC    LOCAL  DEFAULT    2 _RNvMs0_NtNtNtCs19MhURV36j2_4emkk3hal6memory5pagerNtB5_5Pager12into_address
  1130: ffff800000051720    15 FUNC    LOCAL  DEFAULT    2 _RNvMs0_NtNtNtCs19MhURV36j2_4emkk3hal6memory5pagerNtB5_5Pager10update_cr3
  1131: ffff800000054280   163 FUNC    LOCAL  DEFAULT    2 _RNvMs0_NtNtNtCs19MhURV36j2_4emkk3hal6memory5pagerNtB5_5Pager9translate
  1132: ffff800000052e50   324 FUNC    LOCAL  DEFAULT    2 _RNvMs0_NtNtNtCs19MhURV36j2_4emkk3hal6memory5pagerNtB5_5Pager18get_pd_unallocated
  1133: ffff8000000520a0   964 FUNC    LOCAL  DEFAULT    2 _RNvMs0_NtNtNtCs19MhURV36j2_4emkk3hal6memory5pagerNtB5_5Pager16get_pd_allocated
  1134: ffff800000054b20   414 FUNC    LOCAL  DEFAULT    2 _RNvMs_NtNtNtCs19MhURV36j2_4emkk3hal6memory5pagerNtB4_12PointerTable21allocate_if_necessary
  1135: ffff800000052c40   527 FUNC    LOCAL  DEFAULT    2 _RNvMs0_NtNtNtCs19MhURV36j2_4emkk3hal6memory5pagerNtB5_5Pager16page_framebuffer
  1136: ffff8000000546c0   102 FUNC    LOCAL  DEFAULT    2 _RNvMs_NtNtNtCs19MhURV36j2_4emkk3hal6memory5pagerNtB4_12PointerTable10is_present
  1137: ffff800000054580   315 FUNC    LOCAL  DEFAULT    2 _RNvMs_NtNtNtCs19MhURV36j2_4emkk3hal6memory5pagerNtB4_12PointerTable10deallocate
  1138: ffff8000000549a0   111 FUNC    LOCAL  DEFAULT    2 _RNvMs_NtNtNtCs19MhURV36j2_4emkk3hal6memory5pagerNtB4_12PointerTable12is_allocated
  1139: ffff800000054a10   145 FUNC    LOCAL  DEFAULT    2 _RNvMs_NtNtNtCs19MhURV36j2_4emkk3hal6memory5pagerNtB4_12PointerTable15set_new_address
  1140: ffff800000054e10   825 FUNC    LOCAL  DEFAULT    2 _RNvMs_NtNtNtCs19MhURV36j2_4emkk3hal6memory5pagerNtB4_12PointerTable6unfold
  1141: ffff800000053590  1213 FUNC    LOCAL  HIDDEN     2 _RNvMs0_NtNtNtCs19MhURV36j2_4emkk3hal6memory5pagerNtB5_5Pager9host_core
  1142: ffff8000000b4038     8 OBJECT  LOCAL  HIDDEN    10 _RNvNtNtNtCs19MhURV36j2_4emkk3hal6memory5pager15HOST_CORE_PAGER
  1143: ffff800000053d30  1346 FUNC    LOCAL  HIDDEN     2 _RNvMs0_NtNtNtCs19MhURV36j2_4emkk3hal6memory5pagerNtB5_5Pager9page_4_kb
  1144: ffff800000053130    10 FUNC    LOCAL  HIDDEN     2 _RNvMs0_NtNtNtCs19MhURV36j2_4emkk3hal6memory5pagerNtB5_5Pager3new
  1145: ffff800000054330   585 FUNC    LOCAL  HIDDEN     2 _RNvMs0_NtNtNtCs19MhURV36j2_4emkk3hal6memory5pagerNtB5_5Pager9unpage_4k
  1146: ffff800000052470  1994 FUNC    LOCAL  HIDDEN     2 _RNvMs0_NtNtNtCs19MhURV36j2_4emkk3hal6memory5pagerNtB5_5Pager16occupation_check
  1147: ffff800000050eb0  1779 FUNC    LOCAL  HIDDEN     2 _RNvMs0_NtNtNtCs19MhURV36j2_4emkk3hal6memory5pagerNtB5_5Pager10bind_other
  1148: ffff800000053140  1094 FUNC    LOCAL  HIDDEN     2 _RNvMs0_NtNtNtCs19MhURV36j2_4emkk3hal6memory5pagerNtB5_5Pager7release
  1149: ffff800000051f80   276 FUNC    LOCAL  HIDDEN     2 _RNvMs0_NtNtNtCs19MhURV36j2_4emkk3hal6memory5pagerNtB5_5Pager12page_general
  1150: ffff800000051730   907 FUNC    LOCAL  HIDDEN     2 _RNvMs0_NtNtNtCs19MhURV36j2_4emkk3hal6memory5pagerNtB5_5Pager11page_kernel
  1151: ffff800000052fa0   392 FUNC    LOCAL  HIDDEN     2 _RNvMs0_NtNtNtCs19MhURV36j2_4emkk3hal6memory5pagerNtB5_5Pager23page_kernelspace_memory
  1152: ffff8000000515b0   361 FUNC    LOCAL  HIDDEN     2 _RNvMs0_NtNtNtCs19MhURV36j2_4emkk3hal6memory5pagerNtB5_5Pager10page_stack
  1153: ffff800000053a50   733 FUNC    LOCAL  HIDDEN     2 _RNvMs0_NtNtNtCs19MhURV36j2_4emkk3hal6memory5pagerNtB5_5Pager9page_2_mb
  1154: ffff800000051ac0   862 FUNC    LOCAL  HIDDEN     2 _RNvMs0_NtNtNtCs19MhURV36j2_4emkk3hal6memory5pagerNtB5_5Pager12get_physical
  1155: 0000000000000000     0 FILE    LOCAL  DEFAULT  ABS cdtiks8gzqwd11jzss9h5kiqz
  1156: ffff800000055150   442 FUNC    LOCAL  HIDDEN     2 _RNvXNtNtCs19MhURV36j2_4emkk3aml11definitionsNtB2_13DataRefObjectNtNtCs3i3vE8eoeEl_4core5clone5Clone5clone
  1157: ffff800000055310     7 FUNC    LOCAL  HIDDEN     2 _RNvXs_NtNtCs19MhURV36j2_4emkk3aml11definitionsNtB4_12FieldElementNtNtCs3i3vE8eoeEl_4core7default7Default7default
  1158: 0000000000000000     0 FILE    LOCAL  DEFAULT  ABS cfgn971zbyjd3ef74btsoljcw
  1159: ffff8000000555b0    26 FUNC    LOCAL  DEFAULT    2 _RNvMNtNtCs3i3vE8eoeEl_4core3ptr7mut_ptrONtNtNtCs19MhURV36j2_4emkk3aml11path_system5Frame7is_nullBI_
  1160: ffff8000000555d0    26 FUNC    LOCAL  DEFAULT    2 _RNvMNtNtCs3i3vE8eoeEl_4core3ptr9const_ptrPNtNtNtCs19MhURV36j2_4emkk3aml11path_system5Frame7is_nullBK_
  1161: ffff800000055570    52 FUNC    LOCAL  HIDDEN     2 _RNvMNtNtCs3i3vE8eoeEl_4core3ptr7mut_ptrONtNtNtCs19MhURV36j2_4emkk3aml11path_system5Frame6as_mutBI_
  1162: ffff800000055320   579 FUNC    LOCAL  HIDDEN     2 _RNCNvMs0_NtNtCs19MhURV36j2_4emkk3aml11path_systemNtB7_10PathSystem4find0Bb_
  1163: 0000000000000000     0 FILE    LOCAL  DEFAULT  ABS cm3t6wicwkhh4cshkzqixshzg
  1164: ffff8000000558e0    26 FUNC    LOCAL  DEFAULT    2 _RNvMNtNtCs3i3vE8eoeEl_4core3ptr7mut_ptrONtNtNtNtCs19MhURV36j2_4emkk3hal6memory9allocator9Allocator7is_nullBK_
  1165: ffff800000055900    26 FUNC    LOCAL  DEFAULT    2 _RNvMNtNtCs3i3vE8eoeEl_4core3ptr9const_ptrPNtNtNtNtCs19MhURV36j2_4emkk3hal6memory9allocator9Allocator7is_nullBM_
  1166: ffff800000055640    10 FUNC    LOCAL  HIDDEN     2 _RINvMs5_NtNtNtCs19MhURV36j2_4emkk3hal6memory9allocatorNtB6_11MemoryBlock10as_mut_ptrNtNtBc_14multithreading11GsiOverrideEBc_
  1167: ffff800000055650    10 FUNC    LOCAL  HIDDEN     2 _RINvMs5_NtNtNtCs19MhURV36j2_4emkk3hal6memory9allocatorNtB6_11MemoryBlock10as_mut_ptrNtNtBc_14multithreading23MultithreadingLocalApicEBc_
  1168: ffff800000055660    10 FUNC    LOCAL  HIDDEN     2 _RINvMs5_NtNtNtCs19MhURV36j2_4emkk3hal6memory9allocatorNtB6_11MemoryBlock10as_mut_ptrNtNtBc_14multithreading6IoApicEBc_
  1169: ffff800000055870    10 FUNC    LOCAL  HIDDEN     2 _RINvMs5_NtNtNtCs19MhURV36j2_4emkk3hal6memory9allocatorNtB6_11MemoryBlock10as_mut_ptryEBc_
  1170: ffff800000055760    10 FUNC    LOCAL  HIDDEN     2 _RINvMs5_NtNtNtCs19MhURV36j2_4emkk3hal6memory9allocatorNtB6_11MemoryBlock10as_mut_ptrNtNtNtBc_4arch10interrupts8IdtEntryEBc_
  1171: ffff8000000556e0    10 FUNC    LOCAL  HIDDEN     2 _RINvMs5_NtNtNtCs19MhURV36j2_4emkk3hal6memory9allocatorNtB6_11MemoryBlock10as_mut_ptrNtNtCs3i3vE8eoeEl_4core3ffi6c_voidEBc_
  1172: ffff8000000558a0    52 FUNC    LOCAL  HIDDEN     2 _RNvMNtNtCs3i3vE8eoeEl_4core3ptr7mut_ptrONtNtNtNtCs19MhURV36j2_4emkk3hal6memory9allocator9Allocator6as_mutBK_
  1173: ffff8000000557c0    10 FUNC    LOCAL  HIDDEN     2 _RINvMs5_NtNtNtCs19MhURV36j2_4emkk3hal6memory9allocatorNtB6_11MemoryBlock10as_mut_ptrNtNtNtNtBc_7drivers4disk4nvme8NVMeDiskEBc_
  1174: ffff8000000557b0    10 FUNC    LOCAL  HIDDEN     2 _RINvMs5_NtNtNtCs19MhURV36j2_4emkk3hal6memory9allocatorNtB6_11MemoryBlock10as_mut_ptrNtNtNtNtBc_7drivers4disk10nvme_queue9NVMeQueueEBc_
  1175: ffff800000055950    10 FUNC    LOCAL  HIDDEN     2 _RNvMs4_NtNtNtCs19MhURV36j2_4emkk3hal6memory9allocatorINtB5_12PointerBlockNtNtNtNtNtBb_7drivers3usb4ehci15data_structures9QueueHeadE10as_mut_ptrBb_
  1176: ffff800000055af0    24 FUNC    LOCAL  HIDDEN     2 _RNvXs7_NtNtNtCs19MhURV36j2_4emkk3hal6memory9allocatorINtB5_12PointerBlockNtNtNtNtNtBb_7drivers3usb4ehci15data_structures9QueueHeadEINtNtNtBb_5utils6traits6RegionyOB19_E3newBb_
  1177: ffff800000055750    10 FUNC    LOCAL  HIDDEN     2 _RINvMs5_NtNtNtCs19MhURV36j2_4emkk3hal6memory9allocatorNtB6_11MemoryBlock10as_mut_ptrNtNtNtBc_4arch10interrupts13IdtDescriptorEBc_
  1178: ffff800000055620    10 FUNC    LOCAL  HIDDEN     2 _RINvMs5_NtNtNtCs19MhURV36j2_4emkk3hal6memory9allocatorNtB6_11MemoryBlock10as_mut_ptrNtNtB8_5pager5PagerEBc_
  1179: ffff800000055790    10 FUNC    LOCAL  HIDDEN     2 _RINvMs5_NtNtNtCs19MhURV36j2_4emkk3hal6memory9allocatorNtB6_11MemoryBlock10as_mut_ptrNtNtNtNtBc_7drivers3usb17standard_requests6UsbHIDEBc_
  1180: ffff800000055860    10 FUNC    LOCAL  HIDDEN     2 _RINvMs5_NtNtNtCs19MhURV36j2_4emkk3hal6memory9allocatorNtB6_11MemoryBlock10as_mut_ptrmEBc_
  1181: ffff800000055730    10 FUNC    LOCAL  HIDDEN     2 _RINvMs5_NtNtNtCs19MhURV36j2_4emkk3hal6memory9allocatorNtB6_11MemoryBlock10as_mut_ptrNtNtNtBc_3pfs5linux6Ext2FsEBc_
  1182: ffff800000055770    10 FUNC    LOCAL  HIDDEN     2 _RINvMs5_NtNtNtCs19MhURV36j2_4emkk3hal6memory9allocatorNtB6_11MemoryBlock10as_mut_ptrNtNtNtBc_4arch3gdt10GdtSegmentEBc_
  1183: ffff800000055990    10 FUNC    LOCAL  HIDDEN     2 _RNvMs4_NtNtNtCs19MhURV36j2_4emkk3hal6memory9allocatorINtB5_12PointerBlockTNtNtBb_3aml15OperationRegionPhEE6as_ptrBb_
  1184: ffff800000055920    10 FUNC    LOCAL  HIDDEN     2 _RNvMs4_NtNtNtCs19MhURV36j2_4emkk3hal6memory9allocatorINtB5_12PointerBlockNtNtBb_3aml14AmlMethodFrameE10as_mut_ptrBb_
  1185: ffff800000055ab0    24 FUNC    LOCAL  HIDDEN     2 _RNvXs7_NtNtNtCs19MhURV36j2_4emkk3hal6memory9allocatorINtB5_12PointerBlockNtNtBb_3aml14AmlMethodFrameEINtNtNtBb_5utils6traits6RegionyOB19_E3newBb_
  1186: ffff800000055930    10 FUNC    LOCAL  HIDDEN     2 _RNvMs4_NtNtNtCs19MhURV36j2_4emkk3hal6memory9allocatorINtB5_12PointerBlockNtNtBb_3aml14AmlMethodFrameE6as_ptrBb_
  1187: ffff800000055940    10 FUNC    LOCAL  HIDDEN     2 _RNvMs4_NtNtNtCs19MhURV36j2_4emkk3hal6memory9allocatorINtB5_12PointerBlockNtNtNtBb_3aml11path_system5FrameE10as_mut_ptrBb_
  1188: ffff800000055ad0    24 FUNC    LOCAL  HIDDEN     2 _RNvXs7_NtNtNtCs19MhURV36j2_4emkk3hal6memory9allocatorINtB5_12PointerBlockNtNtNtBb_3aml11path_system5FrameEINtNtNtBb_5utils6traits6RegionyOB19_E3newBb_
  1189: ffff800000055b10    24 FUNC    LOCAL  HIDDEN     2 _RNvXs7_NtNtNtCs19MhURV36j2_4emkk3hal6memory9allocatorINtB5_12PointerBlockOINtNtCs3i3vE8eoeEl_4core6option6OptiontEEINtNtNtBb_5utils6traits6RegionyOB19_E3newBb_
  1190: ffff800000055960    10 FUNC    LOCAL  HIDDEN     2 _RNvMs4_NtNtNtCs19MhURV36j2_4emkk3hal6memory9allocatorINtB5_12PointerBlockOINtNtCs3i3vE8eoeEl_4core6option6OptiontEE10as_mut_ptrBb_
  1191: ffff800000055970    10 FUNC    LOCAL  HIDDEN     2 _RNvMs4_NtNtNtCs19MhURV36j2_4emkk3hal6memory9allocatorINtB5_12PointerBlockOINtNtCs3i3vE8eoeEl_4core6option6OptiontEE6as_ptrBb_
  1192: ffff800000055980    10 FUNC    LOCAL  HIDDEN     2 _RNvMs4_NtNtNtCs19MhURV36j2_4emkk3hal6memory9allocatorINtB5_12PointerBlockTNtNtBb_3aml15OperationRegionPhEE10as_mut_ptrBb_
  1193: ffff800000055b30    24 FUNC    LOCAL  HIDDEN     2 _RNvXs7_NtNtNtCs19MhURV36j2_4emkk3hal6memory9allocatorINtB5_12PointerBlockTNtNtBb_3aml15OperationRegionPhEEINtNtNtBb_5utils6traits6RegionyOB19_E3newBb_
  1194: ffff8000000559a0    10 FUNC    LOCAL  HIDDEN     2 _RNvMs4_NtNtNtCs19MhURV36j2_4emkk3hal6memory9allocatorINtB5_12PointerBlocktE10as_mut_ptrBb_
  1195: ffff800000055b50    24 FUNC    LOCAL  HIDDEN     2 _RNvXs7_NtNtNtCs19MhURV36j2_4emkk3hal6memory9allocatorINtB5_12PointerBlocktEINtNtNtBb_5utils6traits6RegionyOtE3newBb_
  1196: ffff8000000559b0    10 FUNC    LOCAL  HIDDEN     2 _RNvMs4_NtNtNtCs19MhURV36j2_4emkk3hal6memory9allocatorINtB5_12PointerBlocktE6as_ptrBb_
  1197: ffff8000000559c0    37 FUNC    LOCAL  HIDDEN     2 _RNvXs3_NtNtNtCs19MhURV36j2_4emkk3hal6memory9allocatorINtB5_12PointerBlockNtNtBb_3aml14AmlMethodFrameENtNtCs3i3vE8eoeEl_4core7default7Default7defaultBb_
  1198: ffff8000000559f0    37 FUNC    LOCAL  HIDDEN     2 _RNvXs3_NtNtNtCs19MhURV36j2_4emkk3hal6memory9allocatorINtB5_12PointerBlockNtNtNtBb_3aml11path_system5FrameENtNtCs3i3vE8eoeEl_4core7default7Default7defaultBb_
  1199: ffff800000055a20    37 FUNC    LOCAL  HIDDEN     2 _RNvXs3_NtNtNtCs19MhURV36j2_4emkk3hal6memory9allocatorINtB5_12PointerBlockOINtNtCs3i3vE8eoeEl_4core6option6OptiontEENtNtB1f_7default7Default7defaultBb_
  1200: ffff800000055a50    37 FUNC    LOCAL  HIDDEN     2 _RNvXs3_NtNtNtCs19MhURV36j2_4emkk3hal6memory9allocatorINtB5_12PointerBlockTNtNtBb_3aml15OperationRegionPhEENtNtCs3i3vE8eoeEl_4core7default7Default7defaultBb_
  1201: ffff800000055a80    37 FUNC    LOCAL  HIDDEN     2 _RNvXs3_NtNtNtCs19MhURV36j2_4emkk3hal6memory9allocatorINtB5_12PointerBlocktENtNtCs3i3vE8eoeEl_4core7default7Default7defaultBb_
  1202: ffff8000000556d0    10 FUNC    LOCAL  HIDDEN     2 _RINvMs5_NtNtNtCs19MhURV36j2_4emkk3hal6memory9allocatorNtB6_11MemoryBlock10as_mut_ptrNtNtBc_9processes11ApplicationEBc_
  1203: ffff800000055850    10 FUNC    LOCAL  HIDDEN     2 _RINvMs5_NtNtNtCs19MhURV36j2_4emkk3hal6memory9allocatorNtB6_11MemoryBlock10as_mut_ptrhEBc_
  1204: ffff800000055890    10 FUNC    LOCAL  HIDDEN     2 _RINvMs5_NtNtNtCs19MhURV36j2_4emkk3hal6memory9allocatorNtB6_11MemoryBlock6as_ptrhEBc_
  1205: ffff800000055880    10 FUNC    LOCAL  HIDDEN     2 _RINvMs5_NtNtNtCs19MhURV36j2_4emkk3hal6memory9allocatorNtB6_11MemoryBlock6as_ptrNtNtCs3i3vE8eoeEl_4core3ffi6c_voidEBc_
  1206: ffff800000055720    10 FUNC    LOCAL  HIDDEN     2 _RINvMs5_NtNtNtCs19MhURV36j2_4emkk3hal6memory9allocatorNtB6_11MemoryBlock10as_mut_ptrNtNtNtBc_3pfs5linux22PhysicalExt2BlockGroupEBc_
  1207: ffff8000000556f0    10 FUNC    LOCAL  HIDDEN     2 _RINvMs5_NtNtNtCs19MhURV36j2_4emkk3hal6memory9allocatorNtB6_11MemoryBlock10as_mut_ptrNtNtNtBc_14multithreading10processors9ProcessorEBc_
  1208: ffff8000000555f0    10 FUNC    LOCAL  HIDDEN     2 _RINvMs5_NtNtNtCs19MhURV36j2_4emkk3hal6memory9allocatorNtB6_11MemoryBlock10as_mut_ptrAtj2_EBc_
  1209: ffff800000055600    10 FUNC    LOCAL  HIDDEN     2 _RINvMs5_NtNtNtCs19MhURV36j2_4emkk3hal6memory9allocatorNtB6_11MemoryBlock10as_mut_ptrAtj4_EBc_
  1210: ffff800000055610    10 FUNC    LOCAL  HIDDEN     2 _RINvMs5_NtNtNtCs19MhURV36j2_4emkk3hal6memory9allocatorNtB6_11MemoryBlock10as_mut_ptrINtNtCs3i3vE8eoeEl_4core6option6OptionNtNtNtBc_3vfs3gfs11GfsNtfsRootEEBc_
  1211: ffff800000055630    10 FUNC    LOCAL  HIDDEN     2 _RINvMs5_NtNtNtCs19MhURV36j2_4emkk3hal6memory9allocatorNtB6_11MemoryBlock10as_mut_ptrNtNtBc_11acpi_tables9AcpiTableEBc_
  1212: ffff800000055670    10 FUNC    LOCAL  HIDDEN     2 _RINvMs5_NtNtNtCs19MhURV36j2_4emkk3hal6memory9allocatorNtB6_11MemoryBlock10as_mut_ptrNtNtBc_3aml5FieldEBc_
  1213: ffff800000055680    10 FUNC    LOCAL  HIDDEN     2 _RINvMs5_NtNtNtCs19MhURV36j2_4emkk3hal6memory9allocatorNtB6_11MemoryBlock10as_mut_ptrNtNtBc_3aml5MutexEBc_
  1214: ffff800000055690    10 FUNC    LOCAL  HIDDEN     2 _RINvMs5_NtNtNtCs19MhURV36j2_4emkk3hal6memory9allocatorNtB6_11MemoryBlock10as_mut_ptrNtNtBc_3aml5ScopeEBc_
  1215: ffff8000000556a0    10 FUNC    LOCAL  HIDDEN     2 _RINvMs5_NtNtNtCs19MhURV36j2_4emkk3hal6memory9allocatorNtB6_11MemoryBlock10as_mut_ptrNtNtBc_3aml6DeviceEBc_
  1216: ffff8000000556b0    10 FUNC    LOCAL  HIDDEN     2 _RINvMs5_NtNtNtCs19MhURV36j2_4emkk3hal6memory9allocatorNtB6_11MemoryBlock10as_mut_ptrNtNtBc_3aml6MethodEBc_
  1217: ffff8000000556c0    10 FUNC    LOCAL  HIDDEN     2 _RINvMs5_NtNtNtCs19MhURV36j2_4emkk3hal6memory9allocatorNtB6_11MemoryBlock10as_mut_ptrNtNtBc_3aml9ProcessorEBc_
  1218: ffff800000055700    10 FUNC    LOCAL  HIDDEN     2 _RINvMs5_NtNtNtCs19MhURV36j2_4emkk3hal6memory9allocatorNtB6_11MemoryBlock10as_mut_ptrNtNtNtBc_3aml11definitions13DataRefObjectEBc_
  1219: ffff800000055710    10 FUNC    LOCAL  HIDDEN     2 _RINvMs5_NtNtNtCs19MhURV36j2_4emkk3hal6memory9allocatorNtB6_11MemoryBlock10as_mut_ptrNtNtNtBc_3aml11name_system5EntryEBc_
  1220: ffff800000055740    10 FUNC    LOCAL  HIDDEN     2 _RINvMs5_NtNtNtCs19MhURV36j2_4emkk3hal6memory9allocatorNtB6_11MemoryBlock10as_mut_ptrNtNtNtBc_3vfs3gfs5GfsFsEBc_
  1221: ffff800000055780    10 FUNC    LOCAL  HIDDEN     2 _RINvMs5_NtNtNtCs19MhURV36j2_4emkk3hal6memory9allocatorNtB6_11MemoryBlock10as_mut_ptrNtNtNtBc_5utils10allocators4NodeEBc_
  1222: ffff8000000557a0    10 FUNC    LOCAL  HIDDEN     2 _RINvMs5_NtNtNtCs19MhURV36j2_4emkk3hal6memory9allocatorNtB6_11MemoryBlock10as_mut_ptrNtNtNtNtBc_7drivers3usb4ehci19EhciInterruptPollerEBc_
  1223: ffff8000000557d0    10 FUNC    LOCAL  HIDDEN     2 _RINvMs5_NtNtNtCs19MhURV36j2_4emkk3hal6memory9allocatorNtB6_11MemoryBlock10as_mut_ptrNtNtNtNtNtBc_7drivers3usb4ehci15data_structures9QueueHeadEBc_
  1224: ffff8000000557e0    10 FUNC    LOCAL  HIDDEN     2 _RINvMs5_NtNtNtCs19MhURV36j2_4emkk3hal6memory9allocatorNtB6_11MemoryBlock10as_mut_ptrNtNtNtNtNtBc_7drivers3usb4ehci20configuration_parser23EhciDeviceConfigurationEBc_
  1225: ffff8000000557f0    10 FUNC    LOCAL  HIDDEN     2 _RINvMs5_NtNtNtCs19MhURV36j2_4emkk3hal6memory9allocatorNtB6_11MemoryBlock10as_mut_ptrNtNtNtNtNtNtBc_7drivers3usb4ehci10structures6device10EhciDeviceEBc_
  1226: ffff800000055800    10 FUNC    LOCAL  HIDDEN     2 _RINvMs5_NtNtNtCs19MhURV36j2_4emkk3hal6memory9allocatorNtB6_11MemoryBlock10as_mut_ptrNtNtNtNtNtNtBc_7drivers3usb4ehci10structures8endpoint12EhciEndpointEBc_
  1227: ffff800000055810    10 FUNC    LOCAL  HIDDEN     2 _RINvMs5_NtNtNtCs19MhURV36j2_4emkk3hal6memory9allocatorNtB6_11MemoryBlock10as_mut_ptrNtNtNtNtNtNtBc_7drivers3usb4ehci10structures9interface13EhciInterfaceEBc_
  1228: ffff800000055820    10 FUNC    LOCAL  HIDDEN     2 _RINvMs5_NtNtNtCs19MhURV36j2_4emkk3hal6memory9allocatorNtB6_11MemoryBlock10as_mut_ptrTNtNtNtBc_3aml11definitions12FieldElementhEEBc_
  1229: ffff800000055830    10 FUNC    LOCAL  HIDDEN     2 _RINvMs5_NtNtNtCs19MhURV36j2_4emkk3hal6memory9allocatorNtB6_11MemoryBlock10as_mut_ptrTthEEBc_
  1230: ffff800000055840    10 FUNC    LOCAL  HIDDEN     2 _RINvMs5_NtNtNtCs19MhURV36j2_4emkk3hal6memory9allocatorNtB6_11MemoryBlock10as_mut_ptrTthtEEBc_
  1231: 0000000000000000     0 FILE    LOCAL  DEFAULT  ABS co41qq5l0gg5ce7htqwum13c7
  1232: ffff800000055b80    82 FUNC    LOCAL  HIDDEN     2 _RNvMNtNtNtNtNtCs19MhURV36j2_4emkk7drivers3usb4ehci10structures9interfaceNtB2_13EhciInterface3new
  1233: ffff800000055d00    11 FUNC    LOCAL  HIDDEN     2 _RNvXs_NtNtNtNtNtCs19MhURV36j2_4emkk7drivers3usb4ehci10structures9interfaceNtB4_13EhciInterfaceNtNtBa_6traits12UsbInterface14endpoint_count
  1234: ffff800000055d10    10 FUNC    LOCAL  HIDDEN     2 _RNvXs_NtNtNtNtNtCs19MhURV36j2_4emkk7drivers3usb4ehci10structures9interfaceNtB4_13EhciInterfaceNtNtBa_6traits12UsbInterface9get_class
  1235: ffff800000055cf0    10 FUNC    LOCAL  HIDDEN     2 _RNvXs_NtNtNtNtNtCs19MhURV36j2_4emkk7drivers3usb4ehci10structures9interfaceNtB4_13EhciInterfaceNtNtBa_6traits12UsbInterface13get_sub_class
  1236: ffff800000055ce0    10 FUNC    LOCAL  HIDDEN     2 _RNvXs_NtNtNtNtNtCs19MhURV36j2_4emkk7drivers3usb4ehci10structures9interfaceNtB4_13EhciInterfaceNtNtBa_6traits12UsbInterface12get_protocol
  1237: ffff800000055be0   256 FUNC    LOCAL  HIDDEN     2 _RNvXs_NtNtNtNtNtCs19MhURV36j2_4emkk7drivers3usb4ehci10structures9interfaceNtB4_13EhciInterfaceNtNtBa_6traits12UsbInterface12get_endpoint
  1238: ffff800000055b70    10 FUNC    LOCAL  HIDDEN     2 _RNvMNtNtNtNtNtCs19MhURV36j2_4emkk7drivers3usb4ehci10structures9interfaceNtB2_13EhciInterface13get_endpoints
  1239: 0000000000000000     0 FILE    LOCAL  DEFAULT  ABS ctlp0n0y38cpu5a4ip91ffcsy
  1240: ffff800000055d20   190 FUNC    LOCAL  HIDDEN     2 _RNvXNtNtCs19MhURV36j2_4emkk7drivers4diskNtB2_12DiskIOResultNtNtCs3i3vE8eoeEl_4core3fmt5Debug3fmtB6_
  1241: 0000000000000000     0 FILE    LOCAL  DEFAULT  ABS cui12g86wzasmh99v2p05h1zv
  1242: ffff8000000564e0   101 FUNC    LOCAL  DEFAULT    2 _RINvMs3_NtNtCs19MhURV36j2_4emkk5utils10allocatorsNtB6_4Node11end_addressNtNtNtNtBa_3vfs3gfs17directory_hashmap21DirectoryHashmapEntryEBa_
  1243: ffff800000056550   101 FUNC    LOCAL  DEFAULT    2 _RINvMs3_NtNtCs19MhURV36j2_4emkk5utils10allocatorsNtB6_4Node11end_addressNtNtNtNtBa_3vfs3gfs17directory_hashmap22DirectoryHashmapBucketEBa_
  1244: ffff8000000565c0   101 FUNC    LOCAL  DEFAULT    2 _RINvMs3_NtNtCs19MhURV36j2_4emkk5utils10allocatorsNtB6_4Node11end_addressTmmEEBa_
  1245: ffff800000056630    96 FUNC    LOCAL  DEFAULT    2 _RINvMs3_NtNtCs19MhURV36j2_4emkk5utils10allocatorsNtB6_4Node13end_as_offsetNtNtNtNtBa_3vfs3gfs17directory_hashmap21DirectoryHashmapEntryEBa_
  1246: ffff800000056690   102 FUNC    LOCAL  DEFAULT    2 _RINvMs3_NtNtCs19MhURV36j2_4emkk5utils10allocatorsNtB6_4Node13end_as_offsetNtNtNtNtBa_3vfs3gfs17directory_hashmap22DirectoryHashmapBucketEBa_
  1247: ffff800000056700    96 FUNC    LOCAL  DEFAULT    2 _RINvMs3_NtNtCs19MhURV36j2_4emkk5utils10allocatorsNtB6_4Node13end_as_offsetTmmEEBa_
  1248: ffff800000056760    83 FUNC    LOCAL  DEFAULT    2 _RINvMs3_NtNtCs19MhURV36j2_4emkk5utils10allocatorsNtB6_4Node14base_as_offsetNtNtNtNtBa_3vfs3gfs17directory_hashmap21DirectoryHashmapEntryEBa_
  1249: ffff8000000567c0    89 FUNC    LOCAL  DEFAULT    2 _RINvMs3_NtNtCs19MhURV36j2_4emkk5utils10allocatorsNtB6_4Node14base_as_offsetNtNtNtNtBa_3vfs3gfs17directory_hashmap22DirectoryHashmapBucketEBa_
  1250: ffff800000056820    83 FUNC    LOCAL  DEFAULT    2 _RINvMs3_NtNtCs19MhURV36j2_4emkk5utils10allocatorsNtB6_4Node14base_as_offsetTmmEEBa_
  1251: ffff800000056880    83 FUNC    LOCAL  DEFAULT    2 _RINvMs3_NtNtCs19MhURV36j2_4emkk5utils10allocatorsNtB6_4Node14base_as_offsethEBa_
  1252: ffff8000000568e0    52 FUNC    LOCAL  DEFAULT    2 _RNvMNtNtCs3i3vE8eoeEl_4core3ptr7mut_ptrONtNtNtCs19MhURV36j2_4emkk5utils10allocators4Node6as_mutBI_
  1253: ffff800000056920    26 FUNC    LOCAL  DEFAULT    2 _RNvMNtNtCs3i3vE8eoeEl_4core3ptr7mut_ptrONtNtNtCs19MhURV36j2_4emkk5utils10allocators4Node7is_nullBI_
  1254: ffff800000056940    26 FUNC    LOCAL  DEFAULT    2 _RNvMNtNtCs3i3vE8eoeEl_4core3ptr9const_ptrPNtNtNtCs19MhURV36j2_4emkk5utils10allocators4Node7is_nullBK_
  1255: ffff800000056960   414 FUNC    LOCAL  DEFAULT    2 _RNvMs0_NtNtCs19MhURV36j2_4emkk5utils10allocatorsINtB5_13PageAllocatorAtj2_E10initializeB9_
  1256: ffff800000056e20   414 FUNC    LOCAL  DEFAULT    2 _RNvMs0_NtNtCs19MhURV36j2_4emkk5utils10allocatorsINtB5_13PageAllocatorAtj4_E10initializeB9_
  1257: ffff8000000576c0   414 FUNC    LOCAL  DEFAULT    2 _RNvMs0_NtNtCs19MhURV36j2_4emkk5utils10allocatorsINtB5_13PageAllocatorNtNtB9_3aml5FieldE10initializeB9_
  1258: ffff800000057a50   414 FUNC    LOCAL  DEFAULT    2 _RNvMs0_NtNtCs19MhURV36j2_4emkk5utils10allocatorsINtB5_13PageAllocatorNtNtB9_3aml5MutexE10initializeB9_
  1259: ffff800000057dd0   414 FUNC    LOCAL  DEFAULT    2 _RNvMs0_NtNtCs19MhURV36j2_4emkk5utils10allocatorsINtB5_13PageAllocatorNtNtB9_3aml5ScopeE10initializeB9_
  1260: ffff8000000582c0   414 FUNC    LOCAL  DEFAULT    2 _RNvMs0_NtNtCs19MhURV36j2_4emkk5utils10allocatorsINtB5_13PageAllocatorNtNtB9_3aml6DeviceE10initializeB9_
  1261: ffff8000000587b0   414 FUNC    LOCAL  DEFAULT    2 _RNvMs0_NtNtCs19MhURV36j2_4emkk5utils10allocatorsINtB5_13PageAllocatorNtNtB9_3aml6MethodE10initializeB9_
  1262: ffff800000058c00   414 FUNC    LOCAL  DEFAULT    2 _RNvMs0_NtNtCs19MhURV36j2_4emkk5utils10allocatorsINtB5_13PageAllocatorNtNtB9_3aml9ProcessorE10initializeB9_
  1263: ffff800000058f80   414 FUNC    LOCAL  DEFAULT    2 _RNvMs0_NtNtCs19MhURV36j2_4emkk5utils10allocatorsINtB5_13PageAllocatorNtNtNtB9_3aml11definitions13DataRefObjectE10initializeB9_
  1264: ffff800000059460   414 FUNC    LOCAL  DEFAULT    2 _RNvMs0_NtNtCs19MhURV36j2_4emkk5utils10allocatorsINtB5_13PageAllocatorNtNtNtB9_3aml11name_system5EntryE10initializeB9_
  1265: ffff800000059930   414 FUNC    LOCAL  DEFAULT    2 _RNvMs0_NtNtCs19MhURV36j2_4emkk5utils10allocatorsINtB5_13PageAllocatorNtNtNtB9_3pfs5linux6Ext2FsE10initializeB9_
  1266: ffff800000064b90    98 FUNC    LOCAL  DEFAULT    2 _RNvXs_NtNtCs19MhURV36j2_4emkk5utils10allocatorsINtB4_13PageAllocatorNtNtNtB8_3pfs5linux6Ext2FsENtNtCs3i3vE8eoeEl_4core7default7Default7defaultB8_
  1267: ffff800000059d90   414 FUNC    LOCAL  DEFAULT    2 _RNvMs0_NtNtCs19MhURV36j2_4emkk5utils10allocatorsINtB5_13PageAllocatorNtNtNtNtB9_7drivers3usb4ehci19EhciInterruptPollerE10initializeB9_
  1268: ffff800000064c00    98 FUNC    LOCAL  DEFAULT    2 _RNvXs_NtNtCs19MhURV36j2_4emkk5utils10allocatorsINtB4_13PageAllocatorNtNtNtNtB8_7drivers3usb4ehci19EhciInterruptPollerENtNtCs3i3vE8eoeEl_4core7default7Default7defaultB8_
  1269: ffff80000005a270   414 FUNC    LOCAL  DEFAULT    2 _RNvMs0_NtNtCs19MhURV36j2_4emkk5utils10allocatorsINtB5_13PageAllocatorNtNtNtNtNtB9_7drivers3usb4ehci15data_structures9QueueHeadE10initializeB9_
  1270: ffff800000064c70    98 FUNC    LOCAL  DEFAULT    2 _RNvXs_NtNtCs19MhURV36j2_4emkk5utils10allocatorsINtB4_13PageAllocatorNtNtNtNtNtB8_7drivers3usb4ehci15data_structures9QueueHeadENtNtCs3i3vE8eoeEl_4core7default7Default7defaultB8_
  1271: ffff80000005a690   414 FUNC    LOCAL  DEFAULT    2 _RNvMs0_NtNtCs19MhURV36j2_4emkk5utils10allocatorsINtB5_13PageAllocatorNtNtNtNtNtB9_7drivers3usb4ehci20configuration_parser23EhciDeviceConfigurationE10initializeB9_
  1272: ffff800000064ce0    98 FUNC    LOCAL  DEFAULT    2 _RNvXs_NtNtCs19MhURV36j2_4emkk5utils10allocatorsINtB4_13PageAllocatorNtNtNtNtNtB8_7drivers3usb4ehci20configuration_parser23EhciDeviceConfigurationENtNtCs3i3vE8eoeEl_4core7default7Default7defaultB8_
  1273: ffff80000005ab80   414 FUNC    LOCAL  DEFAULT    2 _RNvMs0_NtNtCs19MhURV36j2_4emkk5utils10allocatorsINtB5_13PageAllocatorNtNtNtNtNtNtB9_7drivers3usb4ehci10structures6device10EhciDeviceE10initializeB9_
  1274: ffff800000064d50    98 FUNC    LOCAL  DEFAULT    2 _RNvXs_NtNtCs19MhURV36j2_4emkk5utils10allocatorsINtB4_13PageAllocatorNtNtNtNtNtNtB8_7drivers3usb4ehci10structures6device10EhciDeviceENtNtCs3i3vE8eoeEl_4core7default7Default7defaultB8_
  1275: ffff80000005b100   414 FUNC    LOCAL  DEFAULT    2 _RNvMs0_NtNtCs19MhURV36j2_4emkk5utils10allocatorsINtB5_13PageAllocatorNtNtNtNtNtNtB9_7drivers3usb4ehci10structures8endpoint12EhciEndpointE10initializeB9_
  1276: ffff800000064dc0    98 FUNC    LOCAL  DEFAULT    2 _RNvXs_NtNtCs19MhURV36j2_4emkk5utils10allocatorsINtB4_13PageAllocatorNtNtNtNtNtNtB8_7drivers3usb4ehci10structures8endpoint12EhciEndpointENtNtCs3i3vE8eoeEl_4core7default7Default7defaultB8_
  1277: ffff80000005b560   414 FUNC    LOCAL  DEFAULT    2 _RNvMs0_NtNtCs19MhURV36j2_4emkk5utils10allocatorsINtB5_13PageAllocatorNtNtNtNtNtNtB9_7drivers3usb4ehci10structures9interface13EhciInterfaceE10initializeB9_
  1278: ffff800000064e30    98 FUNC    LOCAL  DEFAULT    2 _RNvXs_NtNtCs19MhURV36j2_4emkk5utils10allocatorsINtB4_13PageAllocatorNtNtNtNtNtNtB8_7drivers3usb4ehci10structures9interface13EhciInterfaceENtNtCs3i3vE8eoeEl_4core7default7Default7defaultB8_
  1279: ffff80000005b900   414 FUNC    LOCAL  DEFAULT    2 _RNvMs0_NtNtCs19MhURV36j2_4emkk5utils10allocatorsINtB5_13PageAllocatorTNtNtNtB9_3aml11definitions12FieldElementhEE10initializeB9_
  1280: ffff80000005bd40   414 FUNC    LOCAL  DEFAULT    2 _RNvMs0_NtNtCs19MhURV36j2_4emkk5utils10allocatorsINtB5_13PageAllocatorTthEE10initializeB9_
  1281: ffff80000005c210   414 FUNC    LOCAL  DEFAULT    2 _RNvMs0_NtNtCs19MhURV36j2_4emkk5utils10allocatorsINtB5_13PageAllocatorTthtEE10initializeB9_
  1282: ffff80000005c660   416 FUNC    LOCAL  DEFAULT    2 _RNvMs2_NtNtCs19MhURV36j2_4emkk5utils10allocatorsINtB5_16DynamicAllocatorNtNtB9_14multithreading11GsiOverrideE10initializeB9_
  1283: ffff800000064500    98 FUNC    LOCAL  DEFAULT    2 _RNvXs1_NtNtCs19MhURV36j2_4emkk5utils10allocatorsINtB5_16DynamicAllocatorNtNtB9_14multithreading11GsiOverrideENtNtCs3i3vE8eoeEl_4core7default7Default7defaultB9_
  1284: ffff80000005cc60   416 FUNC    LOCAL  DEFAULT    2 _RNvMs2_NtNtCs19MhURV36j2_4emkk5utils10allocatorsINtB5_16DynamicAllocatorNtNtB9_14multithreading23MultithreadingLocalApicE10initializeB9_
  1285: ffff800000064570    98 FUNC    LOCAL  DEFAULT    2 _RNvXs1_NtNtCs19MhURV36j2_4emkk5utils10allocatorsINtB5_16DynamicAllocatorNtNtB9_14multithreading23MultithreadingLocalApicENtNtCs3i3vE8eoeEl_4core7default7Default7defaultB9_
  1286: ffff80000005d270   416 FUNC    LOCAL  DEFAULT    2 _RNvMs2_NtNtCs19MhURV36j2_4emkk5utils10allocatorsINtB5_16DynamicAllocatorNtNtB9_14multithreading6IoApicE10initializeB9_
  1287: ffff8000000645e0    98 FUNC    LOCAL  DEFAULT    2 _RNvXs1_NtNtCs19MhURV36j2_4emkk5utils10allocatorsINtB5_16DynamicAllocatorNtNtB9_14multithreading6IoApicENtNtCs3i3vE8eoeEl_4core7default7Default7defaultB9_
  1288: ffff80000005d940   416 FUNC    LOCAL  DEFAULT    2 _RNvMs2_NtNtCs19MhURV36j2_4emkk5utils10allocatorsINtB5_16DynamicAllocatoryE10initializeB9_
  1289: ffff800000064650    98 FUNC    LOCAL  DEFAULT    2 _RNvXs1_NtNtCs19MhURV36j2_4emkk5utils10allocatorsINtB5_16DynamicAllocatoryENtNtCs3i3vE8eoeEl_4core7default7Default7defaultB9_
  1290: ffff80000005f680   172 FUNC    LOCAL  DEFAULT    2 _RNvMs4_NtNtCs19MhURV36j2_4emkk5utils10allocatorsINtB5_13NodeAllocatorNtNtNtNtB9_3vfs3gfs17directory_hashmap21DirectoryHashmapEntryE12ref_mut_nodeB9_
  1291: ffff80000005faa0   303 FUNC    LOCAL  DEFAULT    2 _RNvMs4_NtNtCs19MhURV36j2_4emkk5utils10allocatorsINtB5_13NodeAllocatorNtNtNtNtB9_3vfs3gfs17directory_hashmap21DirectoryHashmapEntryE30find_reserving_node_for_offsetB9_
  1292: ffff80000005f140  1344 FUNC    LOCAL  DEFAULT    2 _RNvMs4_NtNtCs19MhURV36j2_4emkk5utils10allocatorsINtB5_13NodeAllocatorNtNtNtNtB9_3vfs3gfs17directory_hashmap21DirectoryHashmapEntryE12freeing_typeB9_
  1293: ffff800000060040    81 FUNC    LOCAL  DEFAULT    2 _RNvMs4_NtNtCs19MhURV36j2_4emkk5utils10allocatorsINtB5_13NodeAllocatorNtNtNtNtB9_3vfs3gfs17directory_hashmap21DirectoryHashmapEntryE8ref_nodeB9_
  1294: ffff80000005eea0   548 FUNC    LOCAL  DEFAULT    2 _RNvMs4_NtNtCs19MhURV36j2_4emkk5utils10allocatorsINtB5_13NodeAllocatorNtNtNtNtB9_3vfs3gfs17directory_hashmap21DirectoryHashmapEntryE11remove_nodeB9_
  1295: ffff80000005ecb0   490 FUNC    LOCAL  DEFAULT    2 _RNvMs4_NtNtCs19MhURV36j2_4emkk5utils10allocatorsINtB5_13NodeAllocatorNtNtNtNtB9_3vfs3gfs17directory_hashmap21DirectoryHashmapEntryE11insert_nodeB9_
  1296: ffff80000005f730   141 FUNC    LOCAL  DEFAULT    2 _RNvMs4_NtNtCs19MhURV36j2_4emkk5utils10allocatorsINtB5_13NodeAllocatorNtNtNtNtB9_3vfs3gfs17directory_hashmap21DirectoryHashmapEntryE16find_new_currentB9_
  1297: ffff800000061820   172 FUNC    LOCAL  DEFAULT    2 _RNvMs4_NtNtCs19MhURV36j2_4emkk5utils10allocatorsINtB5_13NodeAllocatorNtNtNtNtB9_3vfs3gfs17directory_hashmap22DirectoryHashmapBucketE12ref_mut_nodeB9_
  1298: ffff800000061c40   303 FUNC    LOCAL  DEFAULT    2 _RNvMs4_NtNtCs19MhURV36j2_4emkk5utils10allocatorsINtB5_13NodeAllocatorNtNtNtNtB9_3vfs3gfs17directory_hashmap22DirectoryHashmapBucketE30find_reserving_node_for_offsetB9_
  1299: ffff8000000612e0  1344 FUNC    LOCAL  DEFAULT    2 _RNvMs4_NtNtCs19MhURV36j2_4emkk5utils10allocatorsINtB5_13NodeAllocatorNtNtNtNtB9_3vfs3gfs17directory_hashmap22DirectoryHashmapBucketE12freeing_typeB9_
  1300: ffff8000000621f0    81 FUNC    LOCAL  DEFAULT    2 _RNvMs4_NtNtCs19MhURV36j2_4emkk5utils10allocatorsINtB5_13NodeAllocatorNtNtNtNtB9_3vfs3gfs17directory_hashmap22DirectoryHashmapBucketE8ref_nodeB9_
  1301: ffff800000061030   548 FUNC    LOCAL  DEFAULT    2 _RNvMs4_NtNtCs19MhURV36j2_4emkk5utils10allocatorsINtB5_13NodeAllocatorNtNtNtNtB9_3vfs3gfs17directory_hashmap22DirectoryHashmapBucketE11remove_nodeB9_
  1302: ffff800000060e40   490 FUNC    LOCAL  DEFAULT    2 _RNvMs4_NtNtCs19MhURV36j2_4emkk5utils10allocatorsINtB5_13NodeAllocatorNtNtNtNtB9_3vfs3gfs17directory_hashmap22DirectoryHashmapBucketE11insert_nodeB9_
  1303: ffff8000000618d0   141 FUNC    LOCAL  DEFAULT    2 _RNvMs4_NtNtCs19MhURV36j2_4emkk5utils10allocatorsINtB5_13NodeAllocatorNtNtNtNtB9_3vfs3gfs17directory_hashmap22DirectoryHashmapBucketE16find_new_currentB9_
  1304: ffff800000063620   303 FUNC    LOCAL  DEFAULT    2 _RNvMs4_NtNtCs19MhURV36j2_4emkk5utils10allocatorsINtB5_13NodeAllocatorTmmEE30find_reserving_node_for_offsetB9_
  1305: ffff800000063200   172 FUNC    LOCAL  DEFAULT    2 _RNvMs4_NtNtCs19MhURV36j2_4emkk5utils10allocatorsINtB5_13NodeAllocatorTmmEE12ref_mut_nodeB9_
  1306: ffff800000062cc0  1344 FUNC    LOCAL  DEFAULT    2 _RNvMs4_NtNtCs19MhURV36j2_4emkk5utils10allocatorsINtB5_13NodeAllocatorTmmEE12freeing_typeB9_
  1307: ffff800000063aa0    81 FUNC    LOCAL  DEFAULT    2 _RNvMs4_NtNtCs19MhURV36j2_4emkk5utils10allocatorsINtB5_13NodeAllocatorTmmEE8ref_nodeB9_
  1308: ffff800000062a90   548 FUNC    LOCAL  DEFAULT    2 _RNvMs4_NtNtCs19MhURV36j2_4emkk5utils10allocatorsINtB5_13NodeAllocatorTmmEE11remove_nodeB9_
  1309: ffff8000000628a0   490 FUNC    LOCAL  DEFAULT    2 _RNvMs4_NtNtCs19MhURV36j2_4emkk5utils10allocatorsINtB5_13NodeAllocatorTmmEE11insert_nodeB9_
  1310: ffff8000000632b0   141 FUNC    LOCAL  DEFAULT    2 _RNvMs4_NtNtCs19MhURV36j2_4emkk5utils10allocatorsINtB5_13NodeAllocatorTmmEE16find_new_currentB9_
  1311: ffff800000063b00   548 FUNC    LOCAL  DEFAULT    2 _RNvMs4_NtNtCs19MhURV36j2_4emkk5utils10allocatorsINtB5_13NodeAllocatorhE11remove_nodeB9_
  1312: ffff8000000644a0    81 FUNC    LOCAL  DEFAULT    2 _RNvMs4_NtNtCs19MhURV36j2_4emkk5utils10allocatorsINtB5_13NodeAllocatorhE8ref_nodeB9_
  1313: ffff800000063d30   172 FUNC    LOCAL  DEFAULT    2 _RNvMs4_NtNtCs19MhURV36j2_4emkk5utils10allocatorsINtB5_13NodeAllocatorhE12ref_mut_nodeB9_
  1314: ffff800000063de0   141 FUNC    LOCAL  DEFAULT    2 _RNvMs4_NtNtCs19MhURV36j2_4emkk5utils10allocatorsINtB5_13NodeAllocatorhE16find_new_currentB9_
  1315: ffff8000000589c0    10 FUNC    LOCAL  HIDDEN     2 _RNvMs0_NtNtCs19MhURV36j2_4emkk5utils10allocatorsINtB5_13PageAllocatorNtNtB9_3aml6MethodE4sizeB9_
  1316: ffff8000000589d0   145 FUNC    LOCAL  HIDDEN     2 _RNvMs0_NtNtCs19MhURV36j2_4emkk5utils10allocatorsINtB5_13PageAllocatorNtNtB9_3aml6MethodE6as_refB9_
  1317: ffff800000057fe0    10 FUNC    LOCAL  HIDDEN     2 _RNvMs0_NtNtCs19MhURV36j2_4emkk5utils10allocatorsINtB5_13PageAllocatorNtNtB9_3aml5ScopeE4sizeB9_
  1318: ffff8000000584d0    10 FUNC    LOCAL  HIDDEN     2 _RNvMs0_NtNtCs19MhURV36j2_4emkk5utils10allocatorsINtB5_13PageAllocatorNtNtB9_3aml6DeviceE4sizeB9_
  1319: ffff800000058580   145 FUNC    LOCAL  HIDDEN     2 _RNvMs0_NtNtCs19MhURV36j2_4emkk5utils10allocatorsINtB5_13PageAllocatorNtNtB9_3aml6DeviceE6as_refB9_
  1320: ffff800000058090   145 FUNC    LOCAL  HIDDEN     2 _RNvMs0_NtNtCs19MhURV36j2_4emkk5utils10allocatorsINtB5_13PageAllocatorNtNtB9_3aml5ScopeE6as_refB9_
  1321: ffff800000055f70   192 FUNC    LOCAL  HIDDEN     2 _RINvMs0_NtNtCs19MhURV36j2_4emkk5utils10allocatorsINtB6_13PageAllocatorNtNtBa_3aml5ScopeE8for_eachNCNvMsb_B18_NtB18_7AmlCode14get_name_entry0EBa_
  1322: ffff800000056100   192 FUNC    LOCAL  HIDDEN     2 _RINvMs0_NtNtCs19MhURV36j2_4emkk5utils10allocatorsINtB6_13PageAllocatorNtNtBa_3aml6DeviceE8for_eachNCNvMsb_B18_NtB18_7AmlCode14get_name_entrys_0EBa_
  1323: ffff800000056290   192 FUNC    LOCAL  HIDDEN     2 _RINvMs0_NtNtCs19MhURV36j2_4emkk5utils10allocatorsINtB6_13PageAllocatorNtNtBa_3aml9ProcessorE8for_eachNCNvMsb_B18_NtB18_7AmlCode14get_name_entrys0_0EBa_
  1324: ffff800000056030   197 FUNC    LOCAL  HIDDEN     2 _RINvMs0_NtNtCs19MhURV36j2_4emkk5utils10allocatorsINtB6_13PageAllocatorNtNtBa_3aml5ScopeE8for_eachNCNvMsb_B18_NtB18_7AmlCode18get_original_scope0EBa_
  1325: ffff8000000561c0   197 FUNC    LOCAL  HIDDEN     2 _RINvMs0_NtNtCs19MhURV36j2_4emkk5utils10allocatorsINtB6_13PageAllocatorNtNtBa_3aml6DeviceE8for_eachNCNvMsb_B18_NtB18_7AmlCode19get_original_device0EBa_
  1326: ffff800000058130   395 FUNC    LOCAL  HIDDEN     2 _RNvMs0_NtNtCs19MhURV36j2_4emkk5utils10allocatorsINtB5_13PageAllocatorNtNtB9_3aml5ScopeE9push_backB9_
  1327: ffff800000058a70   388 FUNC    LOCAL  HIDDEN     2 _RNvMs0_NtNtCs19MhURV36j2_4emkk5utils10allocatorsINtB5_13PageAllocatorNtNtB9_3aml6MethodE9push_backB9_
  1328: ffff800000057ff0   145 FUNC    LOCAL  HIDDEN     2 _RNvMs0_NtNtCs19MhURV36j2_4emkk5utils10allocatorsINtB5_13PageAllocatorNtNtB9_3aml5ScopeE6as_mutB9_
  1329: ffff8000000584e0   145 FUNC    LOCAL  HIDDEN     2 _RNvMs0_NtNtCs19MhURV36j2_4emkk5utils10allocatorsINtB5_13PageAllocatorNtNtB9_3aml6DeviceE6as_mutB9_
  1330: ffff800000057c60   356 FUNC    LOCAL  HIDDEN     2 _RNvMs0_NtNtCs19MhURV36j2_4emkk5utils10allocatorsINtB5_13PageAllocatorNtNtB9_3aml5MutexE9push_backB9_
  1331: ffff800000055eb0   192 FUNC    LOCAL  HIDDEN     2 _RINvMs0_NtNtCs19MhURV36j2_4emkk5utils10allocatorsINtB6_13PageAllocatorNtNtBa_3aml5FieldE8for_eachNCNvMsb_B18_NtB18_7AmlCode30next_extended_high_instruction0EBa_
  1332: ffff8000000578d0   381 FUNC    LOCAL  HIDDEN     2 _RNvMs0_NtNtCs19MhURV36j2_4emkk5utils10allocatorsINtB5_13PageAllocatorNtNtB9_3aml5FieldE9push_backB9_
  1333: ffff800000058620   395 FUNC    LOCAL  HIDDEN     2 _RNvMs0_NtNtCs19MhURV36j2_4emkk5utils10allocatorsINtB5_13PageAllocatorNtNtB9_3aml6DeviceE9push_backB9_
  1334: ffff800000058e10   366 FUNC    LOCAL  HIDDEN     2 _RNvMs0_NtNtCs19MhURV36j2_4emkk5utils10allocatorsINtB5_13PageAllocatorNtNtB9_3aml9ProcessorE9push_backB9_
  1335: ffff800000057f70   111 FUNC    LOCAL  HIDDEN     2 _RNvMs0_NtNtCs19MhURV36j2_4emkk5utils10allocatorsINtB5_13PageAllocatorNtNtB9_3aml5ScopeE3newB9_
  1336: ffff800000058460   111 FUNC    LOCAL  HIDDEN     2 _RNvMs0_NtNtCs19MhURV36j2_4emkk5utils10allocatorsINtB5_13PageAllocatorNtNtB9_3aml6DeviceE3newB9_
  1337: ffff800000058950   111 FUNC    LOCAL  HIDDEN     2 _RNvMs0_NtNtCs19MhURV36j2_4emkk5utils10allocatorsINtB5_13PageAllocatorNtNtB9_3aml6MethodE3newB9_
  1338: ffff800000058da0   111 FUNC    LOCAL  HIDDEN     2 _RNvMs0_NtNtCs19MhURV36j2_4emkk5utils10allocatorsINtB5_13PageAllocatorNtNtB9_3aml9ProcessorE3newB9_
  1339: ffff800000057bf0   111 FUNC    LOCAL  HIDDEN     2 _RNvMs0_NtNtCs19MhURV36j2_4emkk5utils10allocatorsINtB5_13PageAllocatorNtNtB9_3aml5MutexE3newB9_
  1340: ffff800000057860   111 FUNC    LOCAL  HIDDEN     2 _RNvMs0_NtNtCs19MhURV36j2_4emkk5utils10allocatorsINtB5_13PageAllocatorNtNtB9_3aml5FieldE3newB9_
  1341: ffff8000000648f0    98 FUNC    LOCAL  HIDDEN     2 _RNvXs_NtNtCs19MhURV36j2_4emkk5utils10allocatorsINtB4_13PageAllocatorNtNtB8_3aml5ScopeENtNtCs3i3vE8eoeEl_4core7default7Default7defaultB8_
  1342: ffff800000064960    98 FUNC    LOCAL  HIDDEN     2 _RNvXs_NtNtCs19MhURV36j2_4emkk5utils10allocatorsINtB4_13PageAllocatorNtNtB8_3aml6DeviceENtNtCs3i3vE8eoeEl_4core7default7Default7defaultB8_
  1343: ffff8000000649d0    98 FUNC    LOCAL  HIDDEN     2 _RNvXs_NtNtCs19MhURV36j2_4emkk5utils10allocatorsINtB4_13PageAllocatorNtNtB8_3aml6MethodENtNtCs3i3vE8eoeEl_4core7default7Default7defaultB8_
  1344: ffff800000064880    98 FUNC    LOCAL  HIDDEN     2 _RNvXs_NtNtCs19MhURV36j2_4emkk5utils10allocatorsINtB4_13PageAllocatorNtNtB8_3aml5MutexENtNtCs3i3vE8eoeEl_4core7default7Default7defaultB8_
  1345: ffff800000064810    98 FUNC    LOCAL  HIDDEN     2 _RNvXs_NtNtCs19MhURV36j2_4emkk5utils10allocatorsINtB4_13PageAllocatorNtNtB8_3aml5FieldENtNtCs3i3vE8eoeEl_4core7default7Default7defaultB8_
  1346: ffff800000064a40    98 FUNC    LOCAL  HIDDEN     2 _RNvXs_NtNtCs19MhURV36j2_4emkk5utils10allocatorsINtB4_13PageAllocatorNtNtB8_3aml9ProcessorENtNtCs3i3vE8eoeEl_4core7default7Default7defaultB8_
  1347: ffff80000005b770    10 FUNC    LOCAL  HIDDEN     2 _RNvMs0_NtNtCs19MhURV36j2_4emkk5utils10allocatorsINtB5_13PageAllocatorNtNtNtNtNtNtB9_7drivers3usb4ehci10structures9interface13EhciInterfaceE4sizeB9_
  1348: ffff80000005b4c0   157 FUNC    LOCAL  HIDDEN     2 _RNvMs0_NtNtCs19MhURV36j2_4emkk5utils10allocatorsINtB5_13PageAllocatorNtNtNtNtNtNtB9_7drivers3usb4ehci10structures9interface13EhciInterfaceE10as_mut_ptrB9_
  1349: ffff80000005b310    10 FUNC    LOCAL  HIDDEN     2 _RNvMs0_NtNtCs19MhURV36j2_4emkk5utils10allocatorsINtB5_13PageAllocatorNtNtNtNtNtNtB9_7drivers3usb4ehci10structures8endpoint12EhciEndpointE4sizeB9_
  1350: ffff80000005b060   157 FUNC    LOCAL  HIDDEN     2 _RNvMs0_NtNtCs19MhURV36j2_4emkk5utils10allocatorsINtB5_13PageAllocatorNtNtNtNtNtNtB9_7drivers3usb4ehci10structures8endpoint12EhciEndpointE10as_mut_ptrB9_
  1351: ffff80000005b780   370 FUNC    LOCAL  HIDDEN     2 _RNvMs0_NtNtCs19MhURV36j2_4emkk5utils10allocatorsINtB5_13PageAllocatorNtNtNtNtNtNtB9_7drivers3usb4ehci10structures9interface13EhciInterfaceE9push_backB9_
  1352: ffff80000005b320   406 FUNC    LOCAL  HIDDEN     2 _RNvMs0_NtNtCs19MhURV36j2_4emkk5utils10allocatorsINtB5_13PageAllocatorNtNtNtNtNtNtB9_7drivers3usb4ehci10structures8endpoint12EhciEndpointE9push_backB9_
  1353: ffff800000059ad0   111 FUNC    LOCAL  HIDDEN     2 _RNvMs0_NtNtCs19MhURV36j2_4emkk5utils10allocatorsINtB5_13PageAllocatorNtNtNtB9_3pfs5linux6Ext2FsE3newB9_
  1354: ffff800000059bf0    10 FUNC    LOCAL  HIDDEN     2 _RNvMs0_NtNtCs19MhURV36j2_4emkk5utils10allocatorsINtB5_13PageAllocatorNtNtNtB9_3pfs5linux6Ext2FsE4sizeB9_
  1355: ffff800000056350   197 FUNC    LOCAL  HIDDEN     2 _RINvMs0_NtNtCs19MhURV36j2_4emkk5utils10allocatorsINtB6_13PageAllocatorNtNtNtBa_3pfs5linux6Ext2FsE8for_eachNCNvNtB1a_12disk_scanner10scan_disks0EBa_
  1356: ffff800000059b40   174 FUNC    LOCAL  HIDDEN     2 _RNvMs0_NtNtCs19MhURV36j2_4emkk5utils10allocatorsINtB5_13PageAllocatorNtNtNtB9_3pfs5linux6Ext2FsE4freeB9_
  1357: ffff800000059c00   393 FUNC    LOCAL  HIDDEN     2 _RNvMs0_NtNtCs19MhURV36j2_4emkk5utils10allocatorsINtB5_13PageAllocatorNtNtNtB9_3pfs5linux6Ext2FsE9push_backB9_
  1358: ffff80000005c430   145 FUNC    LOCAL  HIDDEN     2 _RNvMs0_NtNtCs19MhURV36j2_4emkk5utils10allocatorsINtB5_13PageAllocatorTthtEE6as_refB9_
  1359: ffff80000005c3b0   111 FUNC    LOCAL  HIDDEN     2 _RNvMs0_NtNtCs19MhURV36j2_4emkk5utils10allocatorsINtB5_13PageAllocatorTthtEE3newB9_
  1360: ffff80000005c4d0   395 FUNC    LOCAL  HIDDEN     2 _RNvMs0_NtNtCs19MhURV36j2_4emkk5utils10allocatorsINtB5_13PageAllocatorTthtEE9push_backB9_
  1361: ffff800000056420   192 FUNC    LOCAL  HIDDEN     2 _RINvMs0_NtNtCs19MhURV36j2_4emkk5utils10allocatorsINtB6_13PageAllocatorTthtEE8for_eachNCNvMs0_NtNtBa_3aml11path_systemNtB1t_10PathSystem4find0EBa_
  1362: ffff80000005c420    10 FUNC    LOCAL  HIDDEN     2 _RNvMs0_NtNtCs19MhURV36j2_4emkk5utils10allocatorsINtB5_13PageAllocatorTthtEE4sizeB9_
  1363: ffff800000064f80    98 FUNC    LOCAL  HIDDEN     2 _RNvXs_NtNtCs19MhURV36j2_4emkk5utils10allocatorsINtB4_13PageAllocatorTthtEENtNtCs3i3vE8eoeEl_4core7default7Default7defaultB8_
  1364: ffff800000060020    20 FUNC    LOCAL  HIDDEN     2 _RNvMs4_NtNtCs19MhURV36j2_4emkk5utils10allocatorsINtB5_13NodeAllocatorNtNtNtNtB9_3vfs3gfs17directory_hashmap21DirectoryHashmapEntryE8get_baseB9_
  1365: ffff80000005e660  1611 FUNC    LOCAL  HIDDEN     2 _RNvMs4_NtNtCs19MhURV36j2_4emkk5utils10allocatorsINtB5_13NodeAllocatorNtNtNtNtB9_3vfs3gfs17directory_hashmap21DirectoryHashmapEntryE11free_offsetB9_
  1366: ffff80000005f7c0   732 FUNC    LOCAL  HIDDEN     2 _RNvMs4_NtNtCs19MhURV36j2_4emkk5utils10allocatorsINtB5_13NodeAllocatorNtNtNtNtB9_3vfs3gfs17directory_hashmap21DirectoryHashmapEntryE18allocate_as_offsetB9_
  1367: ffff8000000607f0  1611 FUNC    LOCAL  HIDDEN     2 _RNvMs4_NtNtCs19MhURV36j2_4emkk5utils10allocatorsINtB5_13NodeAllocatorNtNtNtNtB9_3vfs3gfs17directory_hashmap22DirectoryHashmapBucketE11free_offsetB9_
  1368: ffff800000061960   732 FUNC    LOCAL  HIDDEN     2 _RNvMs4_NtNtCs19MhURV36j2_4emkk5utils10allocatorsINtB5_13NodeAllocatorNtNtNtNtB9_3vfs3gfs17directory_hashmap22DirectoryHashmapBucketE18allocate_as_offsetB9_
  1369: ffff8000000600a0  1868 FUNC    LOCAL  HIDDEN     2 _RNvMs4_NtNtCs19MhURV36j2_4emkk5utils10allocatorsINtB5_13NodeAllocatorNtNtNtNtB9_3vfs3gfs17directory_hashmap22DirectoryHashmapBucketE10reallocateB9_
  1370: ffff800000061260   125 FUNC    LOCAL  HIDDEN     2 _RNvMs4_NtNtCs19MhURV36j2_4emkk5utils10allocatorsINtB5_13NodeAllocatorNtNtNtNtB9_3vfs3gfs17directory_hashmap22DirectoryHashmapBucketE12as_mut_sliceB9_
  1371: ffff80000005df20  1850 FUNC    LOCAL  HIDDEN     2 _RNvMs4_NtNtCs19MhURV36j2_4emkk5utils10allocatorsINtB5_13NodeAllocatorNtNtNtNtB9_3vfs3gfs17directory_hashmap21DirectoryHashmapEntryE10reallocateB9_
  1372: ffff80000005f0d0   109 FUNC    LOCAL  HIDDEN     2 _RNvMs4_NtNtCs19MhURV36j2_4emkk5utils10allocatorsINtB5_13NodeAllocatorNtNtNtNtB9_3vfs3gfs17directory_hashmap21DirectoryHashmapEntryE12as_mut_sliceB9_
  1373: ffff800000061d70  1112 FUNC    LOCAL  HIDDEN     2 _RNvMs4_NtNtCs19MhURV36j2_4emkk5utils10allocatorsINtB5_13NodeAllocatorNtNtNtNtB9_3vfs3gfs17directory_hashmap22DirectoryHashmapBucketE3newB9_
  1374: ffff80000005fbd0  1103 FUNC    LOCAL  HIDDEN     2 _RNvMs4_NtNtCs19MhURV36j2_4emkk5utils10allocatorsINtB5_13NodeAllocatorNtNtNtNtB9_3vfs3gfs17directory_hashmap21DirectoryHashmapEntryE3newB9_
  1375: ffff8000000621d0    20 FUNC    LOCAL  HIDDEN     2 _RNvMs4_NtNtCs19MhURV36j2_4emkk5utils10allocatorsINtB5_13NodeAllocatorNtNtNtNtB9_3vfs3gfs17directory_hashmap22DirectoryHashmapBucketE8get_baseB9_
  1376: ffff800000064150   844 FUNC    LOCAL  HIDDEN     2 _RNvMs4_NtNtCs19MhURV36j2_4emkk5utils10allocatorsINtB5_13NodeAllocatorhE8new_fakeB9_
  1377: ffff800000063e70   732 FUNC    LOCAL  HIDDEN     2 _RNvMs4_NtNtCs19MhURV36j2_4emkk5utils10allocatorsINtB5_13NodeAllocatorhE18allocate_as_offsetB9_
  1378: ffff800000063750   844 FUNC    LOCAL  HIDDEN     2 _RNvMs4_NtNtCs19MhURV36j2_4emkk5utils10allocatorsINtB5_13NodeAllocatorTmmEE8new_fakeB9_
  1379: ffff800000063340   732 FUNC    LOCAL  HIDDEN     2 _RNvMs4_NtNtCs19MhURV36j2_4emkk5utils10allocatorsINtB5_13NodeAllocatorTmmEE18allocate_as_offsetB9_
  1380: ffff800000062250  1611 FUNC    LOCAL  HIDDEN     2 _RNvMs4_NtNtCs19MhURV36j2_4emkk5utils10allocatorsINtB5_13NodeAllocatorTmmEE11free_offsetB9_
  1381: ffff80000005bf50    10 FUNC    LOCAL  HIDDEN     2 _RNvMs0_NtNtCs19MhURV36j2_4emkk5utils10allocatorsINtB5_13PageAllocatorTthEE4sizeB9_
  1382: ffff800000059670    10 FUNC    LOCAL  HIDDEN     2 _RNvMs0_NtNtCs19MhURV36j2_4emkk5utils10allocatorsINtB5_13PageAllocatorNtNtNtB9_3aml11name_system5EntryE4sizeB9_
  1383: ffff80000005c0a0   360 FUNC    LOCAL  HIDDEN     2 _RNvMs0_NtNtCs19MhURV36j2_4emkk5utils10allocatorsINtB5_13PageAllocatorTthEE9push_backB9_
  1384: ffff800000057030    10 FUNC    LOCAL  HIDDEN     2 _RNvMs0_NtNtCs19MhURV36j2_4emkk5utils10allocatorsINtB5_13PageAllocatorAtj4_E4sizeB9_
  1385: ffff800000057180   356 FUNC    LOCAL  HIDDEN     2 _RNvMs0_NtNtCs19MhURV36j2_4emkk5utils10allocatorsINtB5_13PageAllocatorAtj4_E9push_backB9_
  1386: ffff8000000570e0   145 FUNC    LOCAL  HIDDEN     2 _RNvMs0_NtNtCs19MhURV36j2_4emkk5utils10allocatorsINtB5_13PageAllocatorAtj4_E6as_refB9_
  1387: ffff80000005c000   145 FUNC    LOCAL  HIDDEN     2 _RNvMs0_NtNtCs19MhURV36j2_4emkk5utils10allocatorsINtB5_13PageAllocatorTthEE6as_refB9_
  1388: ffff80000005bf60   145 FUNC    LOCAL  HIDDEN     2 _RNvMs0_NtNtCs19MhURV36j2_4emkk5utils10allocatorsINtB5_13PageAllocatorTthEE6as_mutB9_
  1389: ffff8000000597c0   365 FUNC    LOCAL  HIDDEN     2 _RNvMs0_NtNtCs19MhURV36j2_4emkk5utils10allocatorsINtB5_13PageAllocatorNtNtNtB9_3aml11name_system5EntryE9push_backB9_
  1390: ffff800000059680   145 FUNC    LOCAL  HIDDEN     2 _RNvMs0_NtNtCs19MhURV36j2_4emkk5utils10allocatorsINtB5_13PageAllocatorNtNtNtB9_3aml11name_system5EntryE6as_mutB9_
  1391: ffff800000057040   145 FUNC    LOCAL  HIDDEN     2 _RNvMs0_NtNtCs19MhURV36j2_4emkk5utils10allocatorsINtB5_13PageAllocatorAtj4_E6as_mutB9_
  1392: ffff800000059190    10 FUNC    LOCAL  HIDDEN     2 _RNvMs0_NtNtCs19MhURV36j2_4emkk5utils10allocatorsINtB5_13PageAllocatorNtNtNtB9_3aml11definitions13DataRefObjectE4sizeB9_
  1393: ffff8000000592e0   370 FUNC    LOCAL  HIDDEN     2 _RNvMs0_NtNtCs19MhURV36j2_4emkk5utils10allocatorsINtB5_13PageAllocatorNtNtNtB9_3aml11definitions13DataRefObjectE9push_backB9_
  1394: ffff800000059720   145 FUNC    LOCAL  HIDDEN     2 _RNvMs0_NtNtCs19MhURV36j2_4emkk5utils10allocatorsINtB5_13PageAllocatorNtNtNtB9_3aml11name_system5EntryE6as_refB9_
  1395: ffff800000059240   145 FUNC    LOCAL  HIDDEN     2 _RNvMs0_NtNtCs19MhURV36j2_4emkk5utils10allocatorsINtB5_13PageAllocatorNtNtNtB9_3aml11definitions13DataRefObjectE6as_refB9_
  1396: ffff80000005bee0   111 FUNC    LOCAL  HIDDEN     2 _RNvMs0_NtNtCs19MhURV36j2_4emkk5utils10allocatorsINtB5_13PageAllocatorTthEE3newB9_
  1397: ffff800000056fc0   111 FUNC    LOCAL  HIDDEN     2 _RNvMs0_NtNtCs19MhURV36j2_4emkk5utils10allocatorsINtB5_13PageAllocatorAtj4_E3newB9_
  1398: ffff800000059600   111 FUNC    LOCAL  HIDDEN     2 _RNvMs0_NtNtCs19MhURV36j2_4emkk5utils10allocatorsINtB5_13PageAllocatorNtNtNtB9_3aml11name_system5EntryE3newB9_
  1399: ffff800000059120   111 FUNC    LOCAL  HIDDEN     2 _RNvMs0_NtNtCs19MhURV36j2_4emkk5utils10allocatorsINtB5_13PageAllocatorNtNtNtB9_3aml11definitions13DataRefObjectE3newB9_
  1400: ffff8000000591a0   145 FUNC    LOCAL  HIDDEN     2 _RNvMs0_NtNtCs19MhURV36j2_4emkk5utils10allocatorsINtB5_13PageAllocatorNtNtNtB9_3aml11definitions13DataRefObjectE6as_mutB9_
  1401: ffff800000064730    98 FUNC    LOCAL  HIDDEN     2 _RNvXs_NtNtCs19MhURV36j2_4emkk5utils10allocatorsINtB4_13PageAllocatorAtj4_ENtNtCs3i3vE8eoeEl_4core7default7Default7defaultB8_
  1402: ffff800000064f10    98 FUNC    LOCAL  HIDDEN     2 _RNvXs_NtNtCs19MhURV36j2_4emkk5utils10allocatorsINtB4_13PageAllocatorTthEENtNtCs3i3vE8eoeEl_4core7default7Default7defaultB8_
  1403: ffff800000064b20    98 FUNC    LOCAL  HIDDEN     2 _RNvXs_NtNtCs19MhURV36j2_4emkk5utils10allocatorsINtB4_13PageAllocatorNtNtNtB8_3aml11name_system5EntryENtNtCs3i3vE8eoeEl_4core7default7Default7defaultB8_
  1404: ffff800000064ab0    98 FUNC    LOCAL  HIDDEN     2 _RNvXs_NtNtCs19MhURV36j2_4emkk5utils10allocatorsINtB4_13PageAllocatorNtNtNtB8_3aml11definitions13DataRefObjectENtNtCs3i3vE8eoeEl_4core7default7Default7defaultB8_
  1405: ffff80000005dae0   111 FUNC    LOCAL  HIDDEN     2 _RNvMs2_NtNtCs19MhURV36j2_4emkk5utils10allocatorsINtB5_16DynamicAllocatoryE3newB9_
  1406: ffff80000005db50    32 FUNC    LOCAL  HIDDEN     2 _RNvMs2_NtNtCs19MhURV36j2_4emkk5utils10allocatorsINtB5_16DynamicAllocatoryE7to_listB9_
  1407: ffff80000005db70   930 FUNC    LOCAL  HIDDEN     2 _RNvMs2_NtNtCs19MhURV36j2_4emkk5utils10allocatorsINtB5_16DynamicAllocatoryE9push_backB9_
  1408: ffff80000005d410   111 FUNC    LOCAL  HIDDEN     2 _RNvMs2_NtNtCs19MhURV36j2_4emkk5utils10allocatorsINtB5_16DynamicAllocatorNtNtB9_14multithreading6IoApicE3newB9_
  1409: ffff80000005c800   111 FUNC    LOCAL  HIDDEN     2 _RNvMs2_NtNtCs19MhURV36j2_4emkk5utils10allocatorsINtB5_16DynamicAllocatorNtNtB9_14multithreading11GsiOverrideE3newB9_
  1410: ffff80000005ce00   111 FUNC    LOCAL  HIDDEN     2 _RNvMs2_NtNtCs19MhURV36j2_4emkk5utils10allocatorsINtB5_16DynamicAllocatorNtNtB9_14multithreading23MultithreadingLocalApicE3newB9_
  1411: ffff80000005ce80    32 FUNC    LOCAL  HIDDEN     2 _RNvMs2_NtNtCs19MhURV36j2_4emkk5utils10allocatorsINtB5_16DynamicAllocatorNtNtB9_14multithreading23MultithreadingLocalApicE7to_listB9_
  1412: ffff80000005d490    32 FUNC    LOCAL  HIDDEN     2 _RNvMs2_NtNtCs19MhURV36j2_4emkk5utils10allocatorsINtB5_16DynamicAllocatorNtNtB9_14multithreading6IoApicE7to_listB9_
  1413: ffff80000005c870    32 FUNC    LOCAL  HIDDEN     2 _RNvMs2_NtNtCs19MhURV36j2_4emkk5utils10allocatorsINtB5_16DynamicAllocatorNtNtB9_14multithreading11GsiOverrideE7to_listB9_
  1414: ffff80000005d4b0   995 FUNC    LOCAL  HIDDEN     2 _RNvMs2_NtNtCs19MhURV36j2_4emkk5utils10allocatorsINtB5_16DynamicAllocatorNtNtB9_14multithreading6IoApicE9push_backB9_
  1415: ffff80000005d480    10 FUNC    LOCAL  HIDDEN     2 _RNvMs2_NtNtCs19MhURV36j2_4emkk5utils10allocatorsINtB5_16DynamicAllocatorNtNtB9_14multithreading6IoApicE4sizeB9_
  1416: ffff80000005ce70    10 FUNC    LOCAL  HIDDEN     2 _RNvMs2_NtNtCs19MhURV36j2_4emkk5utils10allocatorsINtB5_16DynamicAllocatorNtNtB9_14multithreading23MultithreadingLocalApicE4sizeB9_
  1417: ffff80000005cea0   966 FUNC    LOCAL  HIDDEN     2 _RNvMs2_NtNtCs19MhURV36j2_4emkk5utils10allocatorsINtB5_16DynamicAllocatorNtNtB9_14multithreading23MultithreadingLocalApicE9push_backB9_
  1418: ffff80000005d8a0   157 FUNC    LOCAL  HIDDEN     2 _RNvMs2_NtNtCs19MhURV36j2_4emkk5utils10allocatorsINtB5_16DynamicAllocatorNtNtB9_14multithreading6IoApicE9ref_constB9_
  1419: ffff80000005c890   971 FUNC    LOCAL  HIDDEN     2 _RNvMs2_NtNtCs19MhURV36j2_4emkk5utils10allocatorsINtB5_16DynamicAllocatorNtNtB9_14multithreading11GsiOverrideE9push_backB9_
  1420: ffff800000057490   174 FUNC    LOCAL  HIDDEN     2 _RNvMs0_NtNtCs19MhURV36j2_4emkk5utils10allocatorsINtB5_13PageAllocatorNtNtB9_11acpi_tables9AcpiTableE4freeB9_
  1421: ffff8000000572f0   414 FUNC    LOCAL  HIDDEN     2 _RNvMs0_NtNtCs19MhURV36j2_4emkk5utils10allocatorsINtB5_13PageAllocatorNtNtB9_11acpi_tables9AcpiTableE10initializeB9_
  1422: ffff800000057540   370 FUNC    LOCAL  HIDDEN     2 _RNvMs0_NtNtCs19MhURV36j2_4emkk5utils10allocatorsINtB5_13PageAllocatorNtNtB9_11acpi_tables9AcpiTableE9push_backB9_
  1423: ffff800000055de0   197 FUNC    LOCAL  HIDDEN     2 _RINvMs0_NtNtCs19MhURV36j2_4emkk5utils10allocatorsINtB6_13PageAllocatorNtNtBa_11acpi_tables9AcpiTableE8for_eachNCNvMs0_B18_NtB18_10AcpiTables9get_table0EBa_
  1424: ffff8000000647a0    98 FUNC    LOCAL  HIDDEN     2 _RNvXs_NtNtCs19MhURV36j2_4emkk5utils10allocatorsINtB4_13PageAllocatorNtNtB8_11acpi_tables9AcpiTableENtNtCs3i3vE8eoeEl_4core7default7Default7defaultB8_
  1425: ffff80000005bb10    10 FUNC    LOCAL  HIDDEN     2 _RNvMs0_NtNtCs19MhURV36j2_4emkk5utils10allocatorsINtB5_13PageAllocatorTNtNtNtB9_3aml11definitions12FieldElementhEE4sizeB9_
  1426: ffff800000056b70    10 FUNC    LOCAL  HIDDEN     2 _RNvMs0_NtNtCs19MhURV36j2_4emkk5utils10allocatorsINtB5_13PageAllocatorAtj2_E4sizeB9_
  1427: ffff800000056cc0   349 FUNC    LOCAL  HIDDEN     2 _RNvMs0_NtNtCs19MhURV36j2_4emkk5utils10allocatorsINtB5_13PageAllocatorAtj2_E9push_backB9_
  1428: ffff800000056c20   145 FUNC    LOCAL  HIDDEN     2 _RNvMs0_NtNtCs19MhURV36j2_4emkk5utils10allocatorsINtB5_13PageAllocatorAtj2_E6as_refB9_
  1429: ffff80000005bbc0   370 FUNC    LOCAL  HIDDEN     2 _RNvMs0_NtNtCs19MhURV36j2_4emkk5utils10allocatorsINtB5_13PageAllocatorTNtNtNtB9_3aml11definitions12FieldElementhEE9push_backB9_
  1430: ffff80000005bb20   145 FUNC    LOCAL  HIDDEN     2 _RNvMs0_NtNtCs19MhURV36j2_4emkk5utils10allocatorsINtB5_13PageAllocatorTNtNtNtB9_3aml11definitions12FieldElementhEE6as_mutB9_
  1431: ffff800000056b80   145 FUNC    LOCAL  HIDDEN     2 _RNvMs0_NtNtCs19MhURV36j2_4emkk5utils10allocatorsINtB5_13PageAllocatorAtj2_E6as_mutB9_
  1432: ffff800000056b00   111 FUNC    LOCAL  HIDDEN     2 _RNvMs0_NtNtCs19MhURV36j2_4emkk5utils10allocatorsINtB5_13PageAllocatorAtj2_E3newB9_
  1433: ffff80000005baa0   111 FUNC    LOCAL  HIDDEN     2 _RNvMs0_NtNtCs19MhURV36j2_4emkk5utils10allocatorsINtB5_13PageAllocatorTNtNtNtB9_3aml11definitions12FieldElementhEE3newB9_
  1434: ffff8000000646c0    98 FUNC    LOCAL  HIDDEN     2 _RNvXs_NtNtCs19MhURV36j2_4emkk5utils10allocatorsINtB4_13PageAllocatorAtj2_ENtNtCs3i3vE8eoeEl_4core7default7Default7defaultB8_
  1435: ffff800000064ea0    98 FUNC    LOCAL  HIDDEN     2 _RNvXs_NtNtCs19MhURV36j2_4emkk5utils10allocatorsINtB4_13PageAllocatorTNtNtNtB8_3aml11definitions12FieldElementhEENtNtCs3i3vE8eoeEl_4core7default7Default7defaultB8_
  1436: ffff800000059f30   111 FUNC    LOCAL  HIDDEN     2 _RNvMs0_NtNtCs19MhURV36j2_4emkk5utils10allocatorsINtB5_13PageAllocatorNtNtNtNtB9_7drivers3usb4ehci19EhciInterruptPollerE3newB9_
  1437: ffff800000059fa0    10 FUNC    LOCAL  HIDDEN     2 _RNvMs0_NtNtCs19MhURV36j2_4emkk5utils10allocatorsINtB5_13PageAllocatorNtNtNtNtB9_7drivers3usb4ehci19EhciInterruptPollerE4sizeB9_
  1438: ffff800000059fb0   145 FUNC    LOCAL  HIDDEN     2 _RNvMs0_NtNtCs19MhURV36j2_4emkk5utils10allocatorsINtB5_13PageAllocatorNtNtNtNtB9_7drivers3usb4ehci19EhciInterruptPollerE6as_mutB9_
  1439: ffff80000005a050   375 FUNC    LOCAL  HIDDEN     2 _RNvMs0_NtNtCs19MhURV36j2_4emkk5utils10allocatorsINtB5_13PageAllocatorNtNtNtNtB9_7drivers3usb4ehci19EhciInterruptPollerE9push_backB9_
  1440: ffff80000005a1d0   157 FUNC    LOCAL  HIDDEN     2 _RNvMs0_NtNtCs19MhURV36j2_4emkk5utils10allocatorsINtB5_13PageAllocatorNtNtNtNtNtB9_7drivers3usb4ehci15data_structures9QueueHeadE10as_mut_ptrB9_
  1441: ffff80000005a410   111 FUNC    LOCAL  HIDDEN     2 _RNvMs0_NtNtCs19MhURV36j2_4emkk5utils10allocatorsINtB5_13PageAllocatorNtNtNtNtNtB9_7drivers3usb4ehci15data_structures9QueueHeadE3newB9_
  1442: ffff80000005a480    10 FUNC    LOCAL  HIDDEN     2 _RNvMs0_NtNtCs19MhURV36j2_4emkk5utils10allocatorsINtB5_13PageAllocatorNtNtNtNtNtB9_7drivers3usb4ehci15data_structures9QueueHeadE4sizeB9_
  1443: ffff80000005a490   337 FUNC    LOCAL  HIDDEN     2 _RNvMs0_NtNtCs19MhURV36j2_4emkk5utils10allocatorsINtB5_13PageAllocatorNtNtNtNtNtB9_7drivers3usb4ehci15data_structures9QueueHeadE9push_backB9_
  1444: ffff80000005a5f0   157 FUNC    LOCAL  HIDDEN     2 _RNvMs0_NtNtCs19MhURV36j2_4emkk5utils10allocatorsINtB5_13PageAllocatorNtNtNtNtNtB9_7drivers3usb4ehci20configuration_parser23EhciDeviceConfigurationE10as_mut_ptrB9_
  1445: ffff80000005a830   111 FUNC    LOCAL  HIDDEN     2 _RNvMs0_NtNtCs19MhURV36j2_4emkk5utils10allocatorsINtB5_13PageAllocatorNtNtNtNtNtB9_7drivers3usb4ehci20configuration_parser23EhciDeviceConfigurationE3newB9_
  1446: ffff80000005a8a0    10 FUNC    LOCAL  HIDDEN     2 _RNvMs0_NtNtCs19MhURV36j2_4emkk5utils10allocatorsINtB5_13PageAllocatorNtNtNtNtNtB9_7drivers3usb4ehci20configuration_parser23EhciDeviceConfigurationE4sizeB9_
  1447: ffff80000005a8b0   388 FUNC    LOCAL  HIDDEN     2 _RNvMs0_NtNtCs19MhURV36j2_4emkk5utils10allocatorsINtB5_13PageAllocatorNtNtNtNtNtB9_7drivers3usb4ehci20configuration_parser23EhciDeviceConfigurationE9push_backB9_
  1448: ffff80000005aa40   157 FUNC    LOCAL  HIDDEN     2 _RNvMs0_NtNtCs19MhURV36j2_4emkk5utils10allocatorsINtB5_13PageAllocatorNtNtNtNtNtNtB9_7drivers3usb4ehci10structures6device10EhciDeviceE10as_mut_ptrB9_
  1449: ffff80000005aae0   157 FUNC    LOCAL  HIDDEN     2 _RNvMs0_NtNtCs19MhURV36j2_4emkk5utils10allocatorsINtB5_13PageAllocatorNtNtNtNtNtNtB9_7drivers3usb4ehci10structures6device10EhciDeviceE10as_ref_ptrB9_
  1450: ffff80000005ad20   111 FUNC    LOCAL  HIDDEN     2 _RNvMs0_NtNtCs19MhURV36j2_4emkk5utils10allocatorsINtB5_13PageAllocatorNtNtNtNtNtNtB9_7drivers3usb4ehci10structures6device10EhciDeviceE3newB9_
  1451: ffff80000005ad90    10 FUNC    LOCAL  HIDDEN     2 _RNvMs0_NtNtCs19MhURV36j2_4emkk5utils10allocatorsINtB5_13PageAllocatorNtNtNtNtNtNtB9_7drivers3usb4ehci10structures6device10EhciDeviceE4sizeB9_
  1452: ffff80000005ada0   145 FUNC    LOCAL  HIDDEN     2 _RNvMs0_NtNtCs19MhURV36j2_4emkk5utils10allocatorsINtB5_13PageAllocatorNtNtNtNtNtNtB9_7drivers3usb4ehci10structures6device10EhciDeviceE6as_mutB9_
  1453: ffff80000005ae40   145 FUNC    LOCAL  HIDDEN     2 _RNvMs0_NtNtCs19MhURV36j2_4emkk5utils10allocatorsINtB5_13PageAllocatorNtNtNtNtNtNtB9_7drivers3usb4ehci10structures6device10EhciDeviceE6as_refB9_
  1454: ffff80000005aee0   381 FUNC    LOCAL  HIDDEN     2 _RNvMs0_NtNtCs19MhURV36j2_4emkk5utils10allocatorsINtB5_13PageAllocatorNtNtNtNtNtNtB9_7drivers3usb4ehci10structures6device10EhciDeviceE9push_backB9_
  1455: ffff80000005b2a0   111 FUNC    LOCAL  HIDDEN     2 _RNvMs0_NtNtCs19MhURV36j2_4emkk5utils10allocatorsINtB5_13PageAllocatorNtNtNtNtNtNtB9_7drivers3usb4ehci10structures8endpoint12EhciEndpointE3newB9_
  1456: ffff80000005b700   111 FUNC    LOCAL  HIDDEN     2 _RNvMs0_NtNtCs19MhURV36j2_4emkk5utils10allocatorsINtB5_13PageAllocatorNtNtNtNtNtNtB9_7drivers3usb4ehci10structures9interface13EhciInterfaceE3newB9_
  1457: 0000000000000000     0 FILE    LOCAL  DEFAULT  ABS czt4zbp85vkis39jyv2k555us
  1458: ffff800000065010    79 FUNC    LOCAL  HIDDEN     2 _RNvMNtNtNtCs3i3vE8eoeEl_4core4iter8adapters8peekableINtB2_8PeekableINtNtNtB8_3str4iter15SplitTerminatorcEE3newCs19MhURV36j2_4emkk
  1459: ffff800000064ff0    12 FUNC    LOCAL  HIDDEN     2 _RNCNvMs3_NtNtNtCs3i3vE8eoeEl_4core4iter8adapters8peekableINtB7_8PeekableINtNtNtBd_3str4iter15SplitTerminatorcEE4peek0Cs19MhURV36j2_4emkk
  1460: ffff800000065000    12 FUNC    LOCAL  HIDDEN     2 _RNCNvMs3_NtNtNtCs3i3vE8eoeEl_4core4iter8adapters8peekableINtB7_8PeekableINtNtNtBd_5slice4iter4ItermEE4peek0Cs19MhURV36j2_4emkk
  1461: ffff800000065060    40 FUNC    LOCAL  HIDDEN     2 _RNvMNtNtNtCs3i3vE8eoeEl_4core4iter8adapters8peekableINtB2_8PeekableINtNtNtB8_5slice4iter4ItermEE3newCs19MhURV36j2_4emkk
  1462: ffff800000065160    86 FUNC    LOCAL  HIDDEN     2 _RNvXs_NtNtNtCs3i3vE8eoeEl_4core4iter8adapters8peekableINtB4_8PeekableINtNtNtBa_5slice4iter4ItermEENtNtNtB8_6traits8iterator8Iterator4nextCs19MhURV36j2_4emkk
  1463: ffff8000000650c0    39 FUNC    LOCAL  HIDDEN     2 _RNvMs3_NtNtNtCs3i3vE8eoeEl_4core4iter8adapters8peekableINtB5_8PeekableINtNtNtBb_5slice4iter4ItermEE4peekCs19MhURV36j2_4emkk
  1464: ffff800000065090    39 FUNC    LOCAL  HIDDEN     2 _RNvMs3_NtNtNtCs3i3vE8eoeEl_4core4iter8adapters8peekableINtB5_8PeekableINtNtNtBb_3str4iter15SplitTerminatorcEE4peekCs19MhURV36j2_4emkk
  1465: ffff8000000650f0   107 FUNC    LOCAL  HIDDEN     2 _RNvXs_NtNtNtCs3i3vE8eoeEl_4core4iter8adapters8peekableINtB4_8PeekableINtNtNtBa_3str4iter15SplitTerminatorcEENtNtNtB8_6traits8iterator8Iterator4nextCs19MhURV36j2_4emkk
  1466: 0000000000000000     0 FILE    LOCAL  DEFAULT  ABS d1gy5ojzv69gigfkwo6abxlqq
  1467: ffff8000000652f0   298 FUNC    LOCAL  HIDDEN     2 _RINvNtNtCs19MhURV36j2_4emkk3aml5utils12parse_pkglenNtNtNtB6_5utils6reader14BufferedReaderEB6_
  1468: ffff800000065bc0   562 FUNC    LOCAL  HIDDEN     2 _RINvNtNtCs19MhURV36j2_4emkk3aml5utils17parse_termarg_intNtNtNtB6_5utils6reader14BufferedReaderEB6_
  1469: ffff8000000651c0   298 FUNC    LOCAL  HIDDEN     2 _RINvNtNtCs19MhURV36j2_4emkk3aml5utils12parse_pkglenNtB4_7AmlCodeEB6_
  1470: ffff800000065420   683 FUNC    LOCAL  HIDDEN     2 _RINvNtNtCs19MhURV36j2_4emkk3aml5utils17parse_name_stringNtB4_7AmlCodeEB6_
  1471: ffff800000065980   562 FUNC    LOCAL  HIDDEN     2 _RINvNtNtCs19MhURV36j2_4emkk3aml5utils17parse_termarg_intNtB4_7AmlCodeEB6_
  1472: ffff8000000656d0   683 FUNC    LOCAL  HIDDEN     2 _RINvNtNtCs19MhURV36j2_4emkk3aml5utils17parse_name_stringNtNtNtB6_5utils6reader14BufferedReaderEB6_
  1473: 0000000000000000     0 FILE    LOCAL  DEFAULT  ABS di8zb55b0yttp5jwt23h9f7a9
  1474: ffff8000000660e0    57 FUNC    LOCAL  HIDDEN     2 _RNvMs1_NtNtNtCs19MhURV36j2_4emkk7drivers4disk15nvme_structuresNtB5_19NVMeCreationCommand26create_io_completion_queue
  1475: ffff800000066120    88 FUNC    LOCAL  HIDDEN     2 _RNvMs1_NtNtNtCs19MhURV36j2_4emkk7drivers4disk15nvme_structuresNtB5_19NVMeCreationCommand26create_io_submission_queue
  1476: ffff800000065ed0   147 FUNC    LOCAL  HIDDEN     2 _RNvMs0_NtNtNtCs19MhURV36j2_4emkk7drivers4disk15nvme_structuresNtB5_19NVMeIdentifyCommand19identify_controller
  1477: ffff800000066010    10 FUNC    LOCAL  HIDDEN     2 _RNvMs0_NtNtNtCs19MhURV36j2_4emkk7drivers4disk15nvme_structuresNtB5_19NVMeIdentifyCommand4data
  1478: ffff800000065e30   147 FUNC    LOCAL  HIDDEN     2 _RNvMs0_NtNtNtCs19MhURV36j2_4emkk7drivers4disk15nvme_structuresNtB5_19NVMeIdentifyCommand16active_nsid_list
  1479: ffff800000065f70   157 FUNC    LOCAL  HIDDEN     2 _RNvMs0_NtNtNtCs19MhURV36j2_4emkk7drivers4disk15nvme_structuresNtB5_19NVMeIdentifyCommand34identify_namespace_data_structures
  1480: ffff800000066020   188 FUNC    LOCAL  HIDDEN     2 _RNvMs0_NtNtNtCs19MhURV36j2_4emkk7drivers4disk15nvme_structuresNtB5_19NVMeIdentifyCommand7release
  1481: ffff8000000661b0   204 FUNC    LOCAL  HIDDEN     2 _RNvXs2_NtNtNtCs19MhURV36j2_4emkk7drivers4disk15nvme_structuresNtB5_19NVMeCreationCommandNtB5_11NVMeCommand5write
  1482: ffff800000066280   117 FUNC    LOCAL  HIDDEN     2 _RNvXs3_NtNtNtCs19MhURV36j2_4emkk7drivers4disk15nvme_structuresNtB5_19NVMeIdentifyCommandNtB5_11NVMeCommand5write
  1483: ffff800000065e00    19 FUNC    LOCAL  HIDDEN     2 _RNvMNtNtNtCs19MhURV36j2_4emkk7drivers4disk15nvme_structuresNtB2_19NVMeCompletionEntry11clear_phase
  1484: ffff800000065e20    14 FUNC    LOCAL  HIDDEN     2 _RNvMNtNtNtCs19MhURV36j2_4emkk7drivers4disk15nvme_structuresNtB2_19NVMeCompletionEntry12status_field
  1485: ffff800000066180    47 FUNC    LOCAL  HIDDEN     2 _RNvMs_NtNtNtCs19MhURV36j2_4emkk7drivers4disk15nvme_structuresNtB4_15NVMeDataPointer4prps
  1486: 0000000000000000     0 FILE    LOCAL  DEFAULT  ABS dng4ynha0xzqgatm4hc8fnt3k
  1487: ffff800000066300    84 FUNC    LOCAL  HIDDEN     2 _RNvMNtNtCs19MhURV36j2_4emkk9processes2peNtNtB2_10structures20ImportDirectoryTable7is_zero
  1488: 0000000000000000     0 FILE    LOCAL  DEFAULT  ABS dnzytsq586cui7k38t7f78da7
  1489: ffff8000000664b0    16 FUNC    LOCAL  HIDDEN     2 _RINvNtNtCs3i3vE8eoeEl_4core3ptr8metadata18from_raw_parts_mutNtNtCs19MhURV36j2_4emkk14multithreading11GsiOverrideuEB10_
  1490: ffff8000000664c0    16 FUNC    LOCAL  HIDDEN     2 _RINvNtNtCs3i3vE8eoeEl_4core3ptr8metadata18from_raw_parts_mutNtNtCs19MhURV36j2_4emkk14multithreading23MultithreadingLocalApicuEB10_
  1491: ffff8000000664d0    16 FUNC    LOCAL  HIDDEN     2 _RINvNtNtCs3i3vE8eoeEl_4core3ptr8metadata18from_raw_parts_mutNtNtCs19MhURV36j2_4emkk14multithreading6IoApicuEB10_
  1492: ffff800000066930    16 FUNC    LOCAL  HIDDEN     2 _RINvNtNtCs3i3vE8eoeEl_4core3ptr8metadata18from_raw_parts_mutyuECs19MhURV36j2_4emkk
  1493: ffff800000066610    16 FUNC    LOCAL  HIDDEN     2 _RINvNtNtCs3i3vE8eoeEl_4core3ptr8metadata18from_raw_parts_mutNtNtNtNtNtCs19MhURV36j2_4emkk7drivers3usb4ehci20configuration_parser23EhciDeviceConfigurationuEB16_
  1494: ffff800000066450    16 FUNC    LOCAL  HIDDEN     2 _RINvNtNtCs3i3vE8eoeEl_4core3ptr8metadata14from_raw_partshuECs19MhURV36j2_4emkk
  1495: ffff800000066370    16 FUNC    LOCAL  HIDDEN     2 _RINvNtNtCs3i3vE8eoeEl_4core3ptr8metadata14from_raw_partsNtNtB6_3ffi6c_voiduECs19MhURV36j2_4emkk
  1496: ffff800000066490    16 FUNC    LOCAL  HIDDEN     2 _RINvNtNtCs3i3vE8eoeEl_4core3ptr8metadata18from_raw_parts_mutNtNtB6_3ffi6c_voiduECs19MhURV36j2_4emkk
  1497: ffff8000000665f0    16 FUNC    LOCAL  HIDDEN     2 _RINvNtNtCs3i3vE8eoeEl_4core3ptr8metadata18from_raw_parts_mutNtNtNtNtCs19MhURV36j2_4emkk7drivers4disk4nvme8NVMeDiskuEB14_
  1498: ffff8000000665e0    16 FUNC    LOCAL  HIDDEN     2 _RINvNtNtCs3i3vE8eoeEl_4core3ptr8metadata18from_raw_parts_mutNtNtNtNtCs19MhURV36j2_4emkk7drivers4disk10nvme_queue9NVMeQueueuEB14_
  1499: ffff800000066390    24 FUNC    LOCAL  HIDDEN     2 _RINvNtNtCs3i3vE8eoeEl_4core3ptr8metadata14from_raw_partsSNtNtNtCs19MhURV36j2_4emkk3pfs3gpt17GptPartitionEntryBT_EBZ_
  1500: ffff8000000663b0    24 FUNC    LOCAL  HIDDEN     2 _RINvNtNtCs3i3vE8eoeEl_4core3ptr8metadata14from_raw_partsSNtNtNtNtCs19MhURV36j2_4emkk3hal6memory9allocator11MemoryBlockBT_EB11_
  1501: ffff8000000663d0    24 FUNC    LOCAL  HIDDEN     2 _RINvNtNtCs3i3vE8eoeEl_4core3ptr8metadata14from_raw_partsSNtNtNtNtCs19MhURV36j2_4emkk9processes2pe10structures18ImageDataDirectoryBT_EB11_
  1502: ffff8000000663f0    24 FUNC    LOCAL  HIDDEN     2 _RINvNtNtCs3i3vE8eoeEl_4core3ptr8metadata14from_raw_partsSNtNtNtNtCs19MhURV36j2_4emkk9processes2pe10structures18ImageSectionHeaderBT_EB11_
  1503: ffff800000066410    24 FUNC    LOCAL  HIDDEN     2 _RINvNtNtCs3i3vE8eoeEl_4core3ptr8metadata14from_raw_partsSmmECs19MhURV36j2_4emkk
  1504: ffff800000066430    24 FUNC    LOCAL  HIDDEN     2 _RINvNtNtCs3i3vE8eoeEl_4core3ptr8metadata14from_raw_partsSttECs19MhURV36j2_4emkk
  1505: ffff800000066660    24 FUNC    LOCAL  HIDDEN     2 _RINvNtNtCs3i3vE8eoeEl_4core3ptr8metadata18from_raw_parts_mutSINtNtB6_6option6OptionNtNtNtCs19MhURV36j2_4emkk3vfs3gfs11GfsNtfsRootEBX_EB1p_
  1506: ffff800000066680    24 FUNC    LOCAL  HIDDEN     2 _RINvNtNtCs3i3vE8eoeEl_4core3ptr8metadata18from_raw_parts_mutSNtNtCs19MhURV36j2_4emkk9processes11ApplicationBX_EB11_
  1507: ffff8000000666a0    24 FUNC    LOCAL  HIDDEN     2 _RINvNtNtCs3i3vE8eoeEl_4core3ptr8metadata18from_raw_parts_mutSNtNtNtCs19MhURV36j2_4emkk3pfs5linux22PhysicalExt2BlockGroupBX_EB13_
  1508: ffff8000000666c0    24 FUNC    LOCAL  HIDDEN     2 _RINvNtNtCs3i3vE8eoeEl_4core3ptr8metadata18from_raw_parts_mutSNtNtNtCs19MhURV36j2_4emkk3pfs5linux6Ext2FsBX_EB13_
  1509: ffff8000000666e0    24 FUNC    LOCAL  HIDDEN     2 _RINvNtNtCs3i3vE8eoeEl_4core3ptr8metadata18from_raw_parts_mutSNtNtNtCs19MhURV36j2_4emkk3vfs3gfs5GfsFsBX_EB13_
  1510: ffff800000066700    24 FUNC    LOCAL  HIDDEN     2 _RINvNtNtCs3i3vE8eoeEl_4core3ptr8metadata18from_raw_parts_mutSNtNtNtCs19MhURV36j2_4emkk4arch10interrupts8IdtEntryBX_EB13_
  1511: ffff800000066720    24 FUNC    LOCAL  HIDDEN     2 _RINvNtNtCs3i3vE8eoeEl_4core3ptr8metadata18from_raw_parts_mutSNtNtNtCs19MhURV36j2_4emkk5utils10allocators4NodeBX_EB13_
  1512: ffff800000066740    24 FUNC    LOCAL  HIDDEN     2 _RINvNtNtCs3i3vE8eoeEl_4core3ptr8metadata18from_raw_parts_mutSNtNtNtCs19MhURV36j2_4emkk9processes10mark_table15MarkTableBucketBX_EB13_
  1513: ffff800000066760    24 FUNC    LOCAL  HIDDEN     2 _RINvNtNtCs3i3vE8eoeEl_4core3ptr8metadata18from_raw_parts_mutSNtNtNtNtCs19MhURV36j2_4emkk3vfs3gfs17directory_hashmap19GfsDirectoryHashmapBX_EB15_
  1514: ffff800000066780    24 FUNC    LOCAL  HIDDEN     2 _RINvNtNtCs3i3vE8eoeEl_4core3ptr8metadata18from_raw_parts_mutSNtNtNtNtCs19MhURV36j2_4emkk3vfs3gfs17directory_hashmap21DirectoryHashmapEntryBX_EB15_
  1515: ffff8000000667a0    24 FUNC    LOCAL  HIDDEN     2 _RINvNtNtCs3i3vE8eoeEl_4core3ptr8metadata18from_raw_parts_mutSNtNtNtNtCs19MhURV36j2_4emkk3vfs3gfs17directory_hashmap22DirectoryHashmapBucketBX_EB15_
  1516: ffff8000000667c0    24 FUNC    LOCAL  HIDDEN     2 _RINvNtNtCs3i3vE8eoeEl_4core3ptr8metadata18from_raw_parts_mutSNtNtNtNtCs19MhURV36j2_4emkk3vfs3gfs4file7GfsFileBX_EB15_
  1517: ffff8000000667e0    24 FUNC    LOCAL  HIDDEN     2 _RINvNtNtCs3i3vE8eoeEl_4core3ptr8metadata18from_raw_parts_mutSNtNtNtNtCs19MhURV36j2_4emkk3vfs3gfs9directory12GfsDirectoryBX_EB15_
  1518: ffff800000066800    24 FUNC    LOCAL  HIDDEN     2 _RINvNtNtCs3i3vE8eoeEl_4core3ptr8metadata18from_raw_parts_mutSNtNtNtNtCs19MhURV36j2_4emkk7drivers4disk15nvme_structures19NVMeCompletionEntryBX_EB15_
  1519: ffff800000066820    24 FUNC    LOCAL  HIDDEN     2 _RINvNtNtCs3i3vE8eoeEl_4core3ptr8metadata18from_raw_parts_mutSNtNtNtNtCs19MhURV36j2_4emkk7drivers4disk15nvme_structures19NVMeSubmissionEntryBX_EB15_
  1520: ffff800000066840    24 FUNC    LOCAL  HIDDEN     2 _RINvNtNtCs3i3vE8eoeEl_4core3ptr8metadata18from_raw_parts_mutSTReRNtNtNtNtCs19MhURV36j2_4emkk3vfs3gfs4file7GfsFileEBX_EB19_
  1521: ffff800000066860    24 FUNC    LOCAL  HIDDEN     2 _RINvNtNtCs3i3vE8eoeEl_4core3ptr8metadata18from_raw_parts_mutSThyEBX_ECs19MhURV36j2_4emkk
  1522: ffff800000066880    24 FUNC    LOCAL  HIDDEN     2 _RINvNtNtCs3i3vE8eoeEl_4core3ptr8metadata18from_raw_parts_mutSTmmEBX_ECs19MhURV36j2_4emkk
  1523: ffff8000000668a0    24 FUNC    LOCAL  HIDDEN     2 _RINvNtNtCs3i3vE8eoeEl_4core3ptr8metadata18from_raw_parts_mutSyyECs19MhURV36j2_4emkk
  1524: ffff8000000665c0    16 FUNC    LOCAL  HIDDEN     2 _RINvNtNtCs3i3vE8eoeEl_4core3ptr8metadata18from_raw_parts_mutNtNtNtNtCs19MhURV36j2_4emkk7drivers3usb17standard_requests6UsbHIDuEB14_
  1525: ffff800000066360    16 FUNC    LOCAL  HIDDEN     2 _RINvNtNtCs3i3vE8eoeEl_4core3ptr8metadata14from_raw_partsINtNtNtCs19MhURV36j2_4emkk5utils4list4ListNtNtBZ_14multithreading6IoApicEuEBZ_
  1526: ffff800000066480    16 FUNC    LOCAL  HIDDEN     2 _RINvNtNtCs3i3vE8eoeEl_4core3ptr8metadata18from_raw_parts_mutINtNtNtCs19MhURV36j2_4emkk5utils4list4ListNtNtB13_14multithreading11GsiOverrideEuEB13_
  1527: ffff8000000665a0    16 FUNC    LOCAL  HIDDEN     2 _RINvNtNtCs3i3vE8eoeEl_4core3ptr8metadata18from_raw_parts_mutNtNtNtCs19MhURV36j2_4emkk4arch3gdt10GdtSegmentuEB12_
  1528: ffff800000066550    16 FUNC    LOCAL  HIDDEN     2 _RINvNtNtCs3i3vE8eoeEl_4core3ptr8metadata18from_raw_parts_mutNtNtCs19MhURV36j2_4emkk9processes20ApplicationRegistersuEB10_
  1529: ffff800000066900    16 FUNC    LOCAL  HIDDEN     2 _RINvNtNtCs3i3vE8eoeEl_4core3ptr8metadata18from_raw_parts_muthuECs19MhURV36j2_4emkk
  1530: ffff8000000665b0    16 FUNC    LOCAL  HIDDEN     2 _RINvNtNtCs3i3vE8eoeEl_4core3ptr8metadata18from_raw_parts_mutNtNtNtNtCs19MhURV36j2_4emkk3hal6memory9allocator9AllocatoruEB14_
  1531: ffff800000066380    16 FUNC    LOCAL  HIDDEN     2 _RINvNtNtCs3i3vE8eoeEl_4core3ptr8metadata14from_raw_partsNtNtCs19MhURV36j2_4emkk11acpi_tables9AcpiTableuEBW_
  1532: ffff8000000664e0    16 FUNC    LOCAL  HIDDEN     2 _RINvNtNtCs3i3vE8eoeEl_4core3ptr8metadata18from_raw_parts_mutNtNtCs19MhURV36j2_4emkk3aml14AmlMethodFrameuEB10_
  1533: ffff800000066580    16 FUNC    LOCAL  HIDDEN     2 _RINvNtNtCs3i3vE8eoeEl_4core3ptr8metadata18from_raw_parts_mutNtNtNtCs19MhURV36j2_4emkk3aml11path_system5FrameuEB12_
  1534: ffff800000066650    16 FUNC    LOCAL  HIDDEN     2 _RINvNtNtCs3i3vE8eoeEl_4core3ptr8metadata18from_raw_parts_mutOINtNtB6_6option6OptiontEuECs19MhURV36j2_4emkk
  1535: ffff8000000668c0    16 FUNC    LOCAL  HIDDEN     2 _RINvNtNtCs3i3vE8eoeEl_4core3ptr8metadata18from_raw_parts_mutTNtNtCs19MhURV36j2_4emkk3aml15OperationRegionPhEuEB11_
  1536: ffff800000066920    16 FUNC    LOCAL  HIDDEN     2 _RINvNtNtCs3i3vE8eoeEl_4core3ptr8metadata18from_raw_parts_muttuECs19MhURV36j2_4emkk
  1537: ffff8000000664a0    16 FUNC    LOCAL  HIDDEN     2 _RINvNtNtCs3i3vE8eoeEl_4core3ptr8metadata18from_raw_parts_mutNtNtCs19MhURV36j2_4emkk11acpi_tables9AcpiTableuEB10_
  1538: ffff800000066590    16 FUNC    LOCAL  HIDDEN     2 _RINvNtNtCs3i3vE8eoeEl_4core3ptr8metadata18from_raw_parts_mutNtNtNtCs19MhURV36j2_4emkk3pfs5linux6Ext2FsuEB12_
  1539: ffff800000066460    16 FUNC    LOCAL  HIDDEN     2 _RINvNtNtCs3i3vE8eoeEl_4core3ptr8metadata18from_raw_parts_mutAtj2_uECs19MhURV36j2_4emkk
  1540: ffff800000066470    16 FUNC    LOCAL  HIDDEN     2 _RINvNtNtCs3i3vE8eoeEl_4core3ptr8metadata18from_raw_parts_mutAtj4_uECs19MhURV36j2_4emkk
  1541: ffff8000000664f0    16 FUNC    LOCAL  HIDDEN     2 _RINvNtNtCs3i3vE8eoeEl_4core3ptr8metadata18from_raw_parts_mutNtNtCs19MhURV36j2_4emkk3aml5FielduEB10_
  1542: ffff800000066500    16 FUNC    LOCAL  HIDDEN     2 _RINvNtNtCs3i3vE8eoeEl_4core3ptr8metadata18from_raw_parts_mutNtNtCs19MhURV36j2_4emkk3aml5MutexuEB10_
  1543: ffff800000066510    16 FUNC    LOCAL  HIDDEN     2 _RINvNtNtCs3i3vE8eoeEl_4core3ptr8metadata18from_raw_parts_mutNtNtCs19MhURV36j2_4emkk3aml5ScopeuEB10_
  1544: ffff800000066520    16 FUNC    LOCAL  HIDDEN     2 _RINvNtNtCs3i3vE8eoeEl_4core3ptr8metadata18from_raw_parts_mutNtNtCs19MhURV36j2_4emkk3aml6DeviceuEB10_
  1545: ffff800000066530    16 FUNC    LOCAL  HIDDEN     2 _RINvNtNtCs3i3vE8eoeEl_4core3ptr8metadata18from_raw_parts_mutNtNtCs19MhURV36j2_4emkk3aml6MethoduEB10_
  1546: ffff800000066540    16 FUNC    LOCAL  HIDDEN     2 _RINvNtNtCs3i3vE8eoeEl_4core3ptr8metadata18from_raw_parts_mutNtNtCs19MhURV36j2_4emkk3aml9ProcessoruEB10_
  1547: ffff800000066560    16 FUNC    LOCAL  HIDDEN     2 _RINvNtNtCs3i3vE8eoeEl_4core3ptr8metadata18from_raw_parts_mutNtNtNtCs19MhURV36j2_4emkk3aml11definitions13DataRefObjectuEB12_
  1548: ffff800000066570    16 FUNC    LOCAL  HIDDEN     2 _RINvNtNtCs3i3vE8eoeEl_4core3ptr8metadata18from_raw_parts_mutNtNtNtCs19MhURV36j2_4emkk3aml11name_system5EntryuEB12_
  1549: ffff8000000665d0    16 FUNC    LOCAL  HIDDEN     2 _RINvNtNtCs3i3vE8eoeEl_4core3ptr8metadata18from_raw_parts_mutNtNtNtNtCs19MhURV36j2_4emkk7drivers3usb4ehci19EhciInterruptPolleruEB14_
  1550: ffff800000066600    16 FUNC    LOCAL  HIDDEN     2 _RINvNtNtCs3i3vE8eoeEl_4core3ptr8metadata18from_raw_parts_mutNtNtNtNtNtCs19MhURV36j2_4emkk7drivers3usb4ehci15data_structures9QueueHeaduEB16_
  1551: ffff800000066620    16 FUNC    LOCAL  HIDDEN     2 _RINvNtNtCs3i3vE8eoeEl_4core3ptr8metadata18from_raw_parts_mutNtNtNtNtNtNtCs19MhURV36j2_4emkk7drivers3usb4ehci10structures6device10EhciDeviceuEB18_
  1552: ffff800000066630    16 FUNC    LOCAL  HIDDEN     2 _RINvNtNtCs3i3vE8eoeEl_4core3ptr8metadata18from_raw_parts_mutNtNtNtNtNtNtCs19MhURV36j2_4emkk7drivers3usb4ehci10structures8endpoint12EhciEndpointuEB18_
  1553: ffff800000066640    16 FUNC    LOCAL  HIDDEN     2 _RINvNtNtCs3i3vE8eoeEl_4core3ptr8metadata18from_raw_parts_mutNtNtNtNtNtNtCs19MhURV36j2_4emkk7drivers3usb4ehci10structures9interface13EhciInterfaceuEB18_
  1554: ffff8000000668d0    16 FUNC    LOCAL  HIDDEN     2 _RINvNtNtCs3i3vE8eoeEl_4core3ptr8metadata18from_raw_parts_mutTNtNtNtCs19MhURV36j2_4emkk3aml11definitions12FieldElementhEuEB13_
  1555: ffff8000000668e0    16 FUNC    LOCAL  HIDDEN     2 _RINvNtNtCs3i3vE8eoeEl_4core3ptr8metadata18from_raw_parts_mutTthEuECs19MhURV36j2_4emkk
  1556: ffff8000000668f0    16 FUNC    LOCAL  HIDDEN     2 _RINvNtNtCs3i3vE8eoeEl_4core3ptr8metadata18from_raw_parts_mutTthtEuECs19MhURV36j2_4emkk
  1557: ffff800000066910    16 FUNC    LOCAL  HIDDEN     2 _RINvNtNtCs3i3vE8eoeEl_4core3ptr8metadata18from_raw_parts_mutmuECs19MhURV36j2_4emkk
  1558: 0000000000000000     0 FILE    LOCAL  DEFAULT  ABS dprq1e8bz46mli8atk99j5w8n
  1559: ffff800000066940  1139 FUNC    LOCAL  DEFAULT    2 _RNvMNtNtNtCs19MhURV36j2_4emkk3hal6memory9allocatorNtB2_11BitmapEntry11is_occupied
  1560: ffff800000066e00    54 FUNC    LOCAL  DEFAULT    2 _RNvMNtNtNtCs19MhURV36j2_4emkk3hal6memory9allocatorNtB2_11BitmapEntry16get_frontbits_ex
  1561: ffff80000006aa20   119 FUNC    LOCAL  DEFAULT    2 _RNvMs8_NtNtNtCs19MhURV36j2_4emkk3hal6memory9allocatorNtB5_9Allocator9make_mask
  1562: ffff800000066dc0    64 FUNC    LOCAL  DEFAULT    2 _RNvMNtNtNtCs19MhURV36j2_4emkk3hal6memory9allocatorNtB2_11BitmapEntry12from_address
  1563: ffff800000066e40    15 FUNC    LOCAL  DEFAULT    2 _RNvMNtNtNtCs19MhURV36j2_4emkk3hal6memory9allocatorNtB2_11BitmapEntry3new
  1564: ffff800000066e50  1170 FUNC    LOCAL  DEFAULT    2 _RNvMNtNtNtCs19MhURV36j2_4emkk3hal6memory9allocatorNtB2_11BitmapEntry7set_one
  1565: ffff8000000672f0  1213 FUNC    LOCAL  DEFAULT    2 _RNvMNtNtNtCs19MhURV36j2_4emkk3hal6memory9allocatorNtB2_11BitmapEntry8set_zero
  1566: ffff800000068490   450 FUNC    LOCAL  DEFAULT    2 _RNvMs8_NtNtNtCs19MhURV36j2_4emkk3hal6memory9allocatorNtB5_9Allocator14is_entry_valid
  1567: ffff800000068670   387 FUNC    LOCAL  DEFAULT    2 _RNvMs8_NtNtNtCs19MhURV36j2_4emkk3hal6memory9allocatorNtB5_9Allocator15next_free_entry
  1568: ffff800000068800  1985 FUNC    LOCAL  DEFAULT    2 _RNvMs8_NtNtNtCs19MhURV36j2_4emkk3hal6memory9allocatorNtB5_9Allocator18next_free_entry_ex
  1569: ffff800000068fd0   135 FUNC    LOCAL  DEFAULT    2 _RNvMs8_NtNtNtCs19MhURV36j2_4emkk3hal6memory9allocatorNtB5_9Allocator22get_current_entry_base
  1570: ffff80000006adb0    51 FUNC    LOCAL  DEFAULT    2 _RNvXs6_NtNtNtCs19MhURV36j2_4emkk3hal6memory9allocatorNtB5_11MemoryBlockINtNtNtBb_5utils6traits6RegionyyE3end
  1571: ffff80000006a0f0  1890 FUNC    LOCAL  DEFAULT    2 _RNvMs8_NtNtNtCs19MhURV36j2_4emkk3hal6memory9allocatorNtB5_9Allocator8alloc_ex
  1572: ffff80000006ad90     8 FUNC    LOCAL  HIDDEN     2 _RNvXs2_NtNtNtCs19MhURV36j2_4emkk3hal6memory9allocatorNtB5_11MemoryBlockNtNtCs3i3vE8eoeEl_4core7default7Default7default
  1573: ffff8000000683d0   179 FUNC    LOCAL  HIDDEN     2 _RNvMs8_NtNtNtCs19MhURV36j2_4emkk3hal6memory9allocatorNtB5_9Allocator10alloc_zero
  1574: ffff800000069d60   904 FUNC    LOCAL  HIDDEN     2 _RNvMs8_NtNtNtCs19MhURV36j2_4emkk3hal6memory9allocatorNtB5_9Allocator5alloc
  1575: ffff80000006adf0    24 FUNC    LOCAL  HIDDEN     2 _RNvXs6_NtNtNtCs19MhURV36j2_4emkk3hal6memory9allocatorNtB5_11MemoryBlockINtNtNtBb_5utils6traits6RegionyyE3new
  1576: ffff800000069c40   281 FUNC    LOCAL  HIDDEN     2 _RNvMs8_NtNtNtCs19MhURV36j2_4emkk3hal6memory9allocatorNtB5_9Allocator4free
  1577: ffff80000006ae10    10 FUNC    LOCAL  HIDDEN     2 _RNvXs6_NtNtNtCs19MhURV36j2_4emkk3hal6memory9allocatorNtB5_11MemoryBlockINtNtNtBb_5utils6traits6RegionyyE8get_base
  1578: ffff80000006ad20   105 FUNC    LOCAL  HIDDEN     2 _RNvMs_NtNtNtCs19MhURV36j2_4emkk3hal6memory9allocatorNtB4_9Allocator5empty
  1579: ffff80000006aaa0   571 FUNC    LOCAL  HIDDEN     2 _RNvMs8_NtNtNtCs19MhURV36j2_4emkk3hal6memory9allocatorNtB5_9Allocator9subdivide
  1580: ffff80000006ada0    11 FUNC    LOCAL  HIDDEN     2 _RNvXs6_NtNtNtCs19MhURV36j2_4emkk3hal6memory9allocatorNtB5_11MemoryBlockINtNtNtBb_5utils6traits6RegionyyE10get_length
  1581: ffff8000000683c0     8 FUNC    LOCAL  HIDDEN     2 _RNvMs1_NtNtNtCs19MhURV36j2_4emkk3hal6memory9allocatorNtB5_11MemoryBlock5empty
  1582: ffff800000068220   410 FUNC    LOCAL  HIDDEN     2 _RNvMs1_NtNtNtCs19MhURV36j2_4emkk3hal6memory9allocatorNtB5_11MemoryBlock3map
  1583: ffff8000000677b0  2657 FUNC    LOCAL  HIDDEN     2 _RNvMs1_NtNtNtCs19MhURV36j2_4emkk3hal6memory9allocatorNtB5_11MemoryBlock13map_efficient
  1584: ffff800000068660    11 FUNC    LOCAL  HIDDEN     2 _RNvMs8_NtNtNtCs19MhURV36j2_4emkk3hal6memory9allocatorNtB5_9Allocator14lowest_address
  1585: ffff800000069060  3031 FUNC    LOCAL  HIDDEN     2 _RNvMs8_NtNtNtCs19MhURV36j2_4emkk3hal6memory9allocatorNtB5_9Allocator3new
  1586: ffff80000006a860   441 FUNC    LOCAL  HIDDEN     2 _RNvMs8_NtNtNtCs19MhURV36j2_4emkk3hal6memory9allocatorNtB5_9Allocator8new_fake
  1587: ffff80000006ace0    59 FUNC    LOCAL  HIDDEN     2 _RNvMs9_NtNtNtCs19MhURV36j2_4emkk3hal6memory9allocatorNtB5_16VirtualAllocator3new
  1588: ffff80000006ae20    14 FUNC    LOCAL  HIDDEN     2 _RNvXsb_NtNtNtCs19MhURV36j2_4emkk3hal6memory9allocatorNtB5_11MemoryBlockNtNtCs3i3vE8eoeEl_4core5clone5Clone5cloneBb_
  1589: 0000000000000000     0 FILE    LOCAL  DEFAULT  ABS dz6rt0syjpvn2du76pym26t4k
  1590: ffff80000006afb0   117 FUNC    LOCAL  HIDDEN     2 _RNvMNtNtCs3i3vE8eoeEl_4core3ptr9const_ptrPh11offset_fromCs19MhURV36j2_4emkk
  1591: ffff80000006b040    12 FUNC    LOCAL  HIDDEN     2 _RNvMNtNtCs3i3vE8eoeEl_4core3ptr9const_ptrPh14read_unalignedCs19MhURV36j2_4emkk
  1592: ffff80000006b0e0    12 FUNC    LOCAL  HIDDEN     2 _RNvMNtNtCs3i3vE8eoeEl_4core3ptr9const_ptrPt14read_unalignedCs19MhURV36j2_4emkk
  1593: ffff80000006b060    12 FUNC    LOCAL  HIDDEN     2 _RNvMNtNtCs3i3vE8eoeEl_4core3ptr9const_ptrPm14read_unalignedCs19MhURV36j2_4emkk
  1594: ffff80000006b170    12 FUNC    LOCAL  HIDDEN     2 _RNvMNtNtCs3i3vE8eoeEl_4core3ptr9const_ptrPy14read_unalignedCs19MhURV36j2_4emkk
  1595: ffff80000006b160    12 FUNC    LOCAL  HIDDEN     2 _RNvMNtNtCs3i3vE8eoeEl_4core3ptr9const_ptrPy13read_volatileCs19MhURV36j2_4emkk
  1596: ffff80000006b080    52 FUNC    LOCAL  HIDDEN     2 _RNvMNtNtCs3i3vE8eoeEl_4core3ptr9const_ptrPm6as_refCs19MhURV36j2_4emkk
  1597: ffff80000006b190    52 FUNC    LOCAL  HIDDEN     2 _RNvMNtNtCs3i3vE8eoeEl_4core3ptr9const_ptrPy6as_refCs19MhURV36j2_4emkk
  1598: ffff80000006b070    12 FUNC    LOCAL  HIDDEN     2 _RNvMNtNtCs3i3vE8eoeEl_4core3ptr9const_ptrPm4readCs19MhURV36j2_4emkk
  1599: ffff80000006b0f0    12 FUNC    LOCAL  HIDDEN     2 _RNvMNtNtCs3i3vE8eoeEl_4core3ptr9const_ptrPt4readCs19MhURV36j2_4emkk
  1600: ffff80000006b180    12 FUNC    LOCAL  HIDDEN     2 _RNvMNtNtCs3i3vE8eoeEl_4core3ptr9const_ptrPy4readCs19MhURV36j2_4emkk
  1601: ffff80000006b050    12 FUNC    LOCAL  HIDDEN     2 _RNvMNtNtCs3i3vE8eoeEl_4core3ptr9const_ptrPm13read_volatileCs19MhURV36j2_4emkk
  1602: ffff80000006b100    52 FUNC    LOCAL  HIDDEN     2 _RNvMNtNtCs3i3vE8eoeEl_4core3ptr9const_ptrPt6as_refCs19MhURV36j2_4emkk
  1603: ffff80000006ae90   150 FUNC    LOCAL  HIDDEN     2 _RNvMNtNtCs3i3vE8eoeEl_4core3ptr9const_ptrPTmmE20offset_from_unsignedCs19MhURV36j2_4emkk
  1604: ffff80000006b030    12 FUNC    LOCAL  HIDDEN     2 _RNvMNtNtCs3i3vE8eoeEl_4core3ptr9const_ptrPh13read_volatileCs19MhURV36j2_4emkk
  1605: ffff80000006af50    52 FUNC    LOCAL  HIDDEN     2 _RNvMNtNtCs3i3vE8eoeEl_4core3ptr9const_ptrPTthtE6as_refCs19MhURV36j2_4emkk
  1606: ffff80000006ae30    26 FUNC    LOCAL  HIDDEN     2 _RNvMNtNtCs3i3vE8eoeEl_4core3ptr9const_ptrPAtj2_7is_nullCs19MhURV36j2_4emkk
  1607: ffff80000006ae50    26 FUNC    LOCAL  HIDDEN     2 _RNvMNtNtCs3i3vE8eoeEl_4core3ptr9const_ptrPAtj4_7is_nullCs19MhURV36j2_4emkk
  1608: ffff80000006ae70    30 FUNC    LOCAL  HIDDEN     2 _RNvMNtNtCs3i3vE8eoeEl_4core3ptr9const_ptrPSh7is_nullCs19MhURV36j2_4emkk
  1609: ffff80000006af30    26 FUNC    LOCAL  HIDDEN     2 _RNvMNtNtCs3i3vE8eoeEl_4core3ptr9const_ptrPTthE7is_nullCs19MhURV36j2_4emkk
  1610: ffff80000006af90    26 FUNC    LOCAL  HIDDEN     2 _RNvMNtNtCs3i3vE8eoeEl_4core3ptr9const_ptrPTthtE7is_nullCs19MhURV36j2_4emkk
  1611: ffff80000006b0c0    26 FUNC    LOCAL  HIDDEN     2 _RNvMNtNtCs3i3vE8eoeEl_4core3ptr9const_ptrPm7is_nullCs19MhURV36j2_4emkk
  1612: ffff80000006b140    26 FUNC    LOCAL  HIDDEN     2 _RNvMNtNtCs3i3vE8eoeEl_4core3ptr9const_ptrPt7is_nullCs19MhURV36j2_4emkk
  1613: ffff80000006b1d0    26 FUNC    LOCAL  HIDDEN     2 _RNvMNtNtCs3i3vE8eoeEl_4core3ptr9const_ptrPy7is_nullCs19MhURV36j2_4emkk
  1614: 0000000000000000     0 FILE    LOCAL  DEFAULT  ABS e5nf5b3cipmor92palmcdrmkb
  1615: ffff80000006b1f0   123 FUNC    LOCAL  HIDDEN     2 _RNvMNtNtCs3i3vE8eoeEl_4core3ptr9const_ptrPNtNtNtNtCs19MhURV36j2_4emkk3vfs3gfs4file7GfsFile11offset_fromBM_
  1616: 0000000000000000     0 FILE    LOCAL  DEFAULT  ABS e7gw3q6sa94ipfycclfa7712p
  1617: ffff80000006b2f0   116 FUNC    LOCAL  DEFAULT    2 _RNvMs4_NtCs3i3vE8eoeEl_4core3fmtNtB5_9Arguments6as_strCs19MhURV36j2_4emkk
  1618: ffff80000006b370    50 FUNC    LOCAL  HIDDEN     2 _RNvMs4_NtCs3i3vE8eoeEl_4core3fmtNtB5_9Arguments8from_strCs19MhURV36j2_4emkk
  1619: ffff80000006b270    24 FUNC    LOCAL  HIDDEN     2 _RNvMs2_NtCs3i3vE8eoeEl_4core3fmtNtB5_9Arguments17from_str_nonconstCs19MhURV36j2_4emkk
  1620: ffff80000006b3b0   156 FUNC    LOCAL  HIDDEN     2 _RNvMsa_NtCs3i3vE8eoeEl_4core3fmtNtB5_9Formatter9write_fmtCs19MhURV36j2_4emkk
  1621: ffff80000006b450    26 FUNC    LOCAL  HIDDEN     2 _RNvXsf_NtCs3i3vE8eoeEl_4core3fmtbNtB5_5Debug3fmtCs19MhURV36j2_4emkk
  1622: ffff80000006b290    92 FUNC    LOCAL  HIDDEN     2 _RNvMs4_NtCs3i3vE8eoeEl_4core3fmtNtB5_9Arguments23as_statically_known_strCs19MhURV36j2_4emkk
  1623: 0000000000000000     0 FILE    LOCAL  DEFAULT  ABS e9pseosphcpeq6itlohcm1q65
  1624: ffff80000006b470   217 FUNC    LOCAL  DEFAULT    2 _RNvNtNtCs3i3vE8eoeEl_4core5slice6memchr12memchr_naiveCs19MhURV36j2_4emkk
  1625: ffff80000006b550   164 FUNC    LOCAL  HIDDEN     2 _RNvNtNtCs3i3vE8eoeEl_4core5slice6memchr6memchrCs19MhURV36j2_4emkk
  1626: 0000000000000000     0 FILE    LOCAL  DEFAULT  ABS eamtf2il6ickfmrczdfuc9jto
  1627: ffff80000006b680    28 FUNC    LOCAL  HIDDEN     2 _RINvNtCs3i3vE8eoeEl_4core3mem7replacehECs19MhURV36j2_4emkk
  1628: ffff80000006b6a0    25 FUNC    LOCAL  HIDDEN     2 _RINvNtCs3i3vE8eoeEl_4core3mem7replacemECs19MhURV36j2_4emkk
  1629: ffff80000006b600    54 FUNC    LOCAL  HIDDEN     2 _RINvNtCs3i3vE8eoeEl_4core3mem7replaceINtNtB4_6option6OptionIBA_ReEEECs19MhURV36j2_4emkk
  1630: ffff80000006b640    50 FUNC    LOCAL  HIDDEN     2 _RINvNtCs3i3vE8eoeEl_4core3mem7replaceINtNtB4_6option6OptionIBA_RmEEECs19MhURV36j2_4emkk
  1631: 0000000000000000     0 FILE    LOCAL  DEFAULT  ABS ehtmzwsb9pb1cyvqofi3usebh
  1632: ffff80000006c1e0  1070 FUNC    LOCAL  DEFAULT    2 _RNvMs0_NtNtCs19MhURV36j2_4emkk3vfs3gfsNtB5_17GeneralFileSystem16win_get_file_mut
  1633: ffff80000006b8e0   994 FUNC    LOCAL  DEFAULT    2 _RNvMs0_NtNtCs19MhURV36j2_4emkk3vfs3gfsNtB5_17GeneralFileSystem12lin_get_link
  1634: ffff80000006bcd0  1010 FUNC    LOCAL  DEFAULT    2 _RNvMs0_NtNtCs19MhURV36j2_4emkk3vfs3gfsNtB5_17GeneralFileSystem12win_get_link
  1635: ffff80000006c610   385 FUNC    LOCAL  DEFAULT    2 _RNvMs0_NtNtCs19MhURV36j2_4emkk3vfs3gfsNtB5_17GeneralFileSystem17lin_get_directory
  1636: ffff80000006c8d0  1419 FUNC    LOCAL  DEFAULT    2 _RNvMs0_NtNtCs19MhURV36j2_4emkk3vfs3gfsNtB5_17GeneralFileSystem22lin_discover_directory
  1637: ffff80000006d0d0   108 FUNC    LOCAL  DEFAULT    2 _RNvMs_NtNtCs19MhURV36j2_4emkk3vfs3gfsNtB4_17GeneralFileSystem10mount_ext2
  1638: ffff80000006d140  1916 FUNC    LOCAL  DEFAULT    2 _RNvMs_NtNtCs19MhURV36j2_4emkk3vfs3gfsNtB4_17GeneralFileSystem10parse_ext2
  1639: ffff80000006d8d0  1752 FUNC    LOCAL  DEFAULT    2 _RNvMs_NtNtCs19MhURV36j2_4emkk3vfs3gfsNtB4_17GeneralFileSystem11map_virtual
  1640: ffff80000006e180    61 FUNC    LOCAL  DEFAULT    2 _RNvMs_NtNtCs19MhURV36j2_4emkk3vfs3gfsNtB4_17GeneralFileSystem13send_sync_ipi
  1641: ffff80000006e350   890 FUNC    LOCAL  DEFAULT    2 _RNvMs_NtNtCs19MhURV36j2_4emkk3vfs3gfsNtB4_17GeneralFileSystem17assign_ntfs_roots
  1642: ffff800000097ce5    24 OBJECT  LOCAL  DEFAULT    3 _RNvNtNtCs19MhURV36j2_4emkk3vfs3gfs15NTFS_ROOT_NAMES
  1643: ffff80000006e9c0  2776 FUNC    LOCAL  DEFAULT    2 _RNvMs_NtNtCs19MhURV36j2_4emkk3vfs3gfsNtB4_17GeneralFileSystem28create_partition_directories
  1644: ffff800000071370   318 FUNC    LOCAL  DEFAULT    2 _RNvMs_NtNtCs19MhURV36j2_4emkk3vfs3gfsNtB4_17GeneralFileSystem8find_smp
  1645: ffff8000000ab568     4 OBJECT  LOCAL  DEFAULT    4 _RNvNtNtCs19MhURV36j2_4emkk3vfs3gfs25GFS_STRING_ALLOCATED_SIZE
  1646: ffff8000000b025c     4 OBJECT  LOCAL  DEFAULT    6 _RNvNvMs_NtNtCs19MhURV36j2_4emkk3vfs3gfsNtB6_17GeneralFileSystem4sync27LAST_FILE_PAGE_SYNCHRONISED
  1647: ffff8000000b0268     4 OBJECT  LOCAL  DEFAULT    6 _RNvNvMs_NtNtCs19MhURV36j2_4emkk3vfs3gfsNtB6_17GeneralFileSystem4sync34LAST_DIRECTORIES_PAGE_SYNCHRONISED
  1648: ffff8000000b0264     4 OBJECT  LOCAL  DEFAULT    6 _RNvNvMs_NtNtCs19MhURV36j2_4emkk3vfs3gfsNtB6_17GeneralFileSystem4sync30LAST_HASHMAP_PAGE_SYNCHRONISED
  1649: ffff8000000b0260     4 OBJECT  LOCAL  DEFAULT    6 _RNvNvMs_NtNtCs19MhURV36j2_4emkk3vfs3gfsNtB6_17GeneralFileSystem4sync29LAST_STRING_PAGE_SYNCHRONISED
  1650: ffff80000006e120    82 FUNC    LOCAL  HIDDEN     2 _RNvMs_NtNtCs19MhURV36j2_4emkk3vfs3gfsNtB4_17GeneralFileSystem13ref_directory
  1651: ffff80000006d8c0    16 FUNC    LOCAL  HIDDEN     2 _RNvMs_NtNtCs19MhURV36j2_4emkk3vfs3gfsNtB4_17GeneralFileSystem11get_manager
  1652: ffff80000006b6c0    51 FUNC    LOCAL  HIDDEN     2 _RNvMNtNtCs19MhURV36j2_4emkk3vfs3gfsNtB2_7GfsType6to_u64
  1653: ffff80000006b700    85 FUNC    LOCAL  HIDDEN     2 _RNvMNtNtCs19MhURV36j2_4emkk3vfs3gfsNtB2_7GfsType8from_u64
  1654: ffff8000000ab570   560 OBJECT  LOCAL  HIDDEN     4 _RNvNtNtCs19MhURV36j2_4emkk3vfs3gfs3GFS
  1655: ffff80000006b830   174 FUNC    LOCAL  HIDDEN     2 _RNvMs0_NtNtCs19MhURV36j2_4emkk3vfs3gfsNtB5_17GeneralFileSystem12get_file_mut
  1656: ffff80000006e830   380 FUNC    LOCAL  HIDDEN     2 _RNvMs_NtNtCs19MhURV36j2_4emkk3vfs3gfsNtB4_17GeneralFileSystem20align_size_to_blocks
  1657: ffff80000006ce60   305 FUNC    LOCAL  HIDDEN     2 _RNvMs0_NtNtCs19MhURV36j2_4emkk3vfs3gfsNtB5_17GeneralFileSystem25read_pointers_into_buffer
  1658: ffff80000006b760   196 FUNC    LOCAL  HIDDEN     2 _RNvMs0_NtNtCs19MhURV36j2_4emkk3vfs3gfsNtB5_17GeneralFileSystem10block_size
  1659: ffff80000006cfa0   302 FUNC    LOCAL  HIDDEN     2 _RNvMs0_NtNtCs19MhURV36j2_4emkk3vfs3gfsNtB5_17GeneralFileSystem34read_singly_indirect_pointer_block
  1660: ffff8000000714b0   224 FUNC    LOCAL  HIDDEN     2 _RNvXs1_NtNtCs19MhURV36j2_4emkk3vfs3gfsNtB5_12GfsReadErrorNtNtCs3i3vE8eoeEl_4core3fmt5Debug3fmtB9_
  1661: ffff80000006f4a0  3008 FUNC    LOCAL  HIDDEN     2 _RNvMs_NtNtCs19MhURV36j2_4emkk3vfs3gfsNtB4_17GeneralFileSystem3new
  1662: ffff800000070060  4871 FUNC    LOCAL  HIDDEN     2 _RNvMs_NtNtCs19MhURV36j2_4emkk3vfs3gfsNtB4_17GeneralFileSystem4sync
  1663: ffff80000006c7a0   290 FUNC    LOCAL  HIDDEN     2 _RNvMs0_NtNtCs19MhURV36j2_4emkk3vfs3gfsNtB5_17GeneralFileSystem18discover_directory
  1664: ffff80000006c0d0   259 FUNC    LOCAL  HIDDEN     2 _RNvMs0_NtNtCs19MhURV36j2_4emkk3vfs3gfsNtB5_17GeneralFileSystem13get_directory
  1665: ffff80000006dfb0    82 FUNC    LOCAL  HIDDEN     2 _RNvMs_NtNtCs19MhURV36j2_4emkk3vfs3gfsNtB4_17GeneralFileSystem12ref_file_mut
  1666: ffff80000006e010   260 FUNC    LOCAL  HIDDEN     2 _RNvMs_NtNtCs19MhURV36j2_4emkk3vfs3gfsNtB4_17GeneralFileSystem12request_file
  1667: ffff80000006e6d0   341 FUNC    LOCAL  HIDDEN     2 _RNvMs_NtNtCs19MhURV36j2_4emkk3vfs3gfsNtB4_17GeneralFileSystem17request_directory
  1668: ffff80000006e1c0   385 FUNC    LOCAL  HIDDEN     2 _RNvMs_NtNtCs19MhURV36j2_4emkk3vfs3gfsNtB4_17GeneralFileSystem15request_hashmap
  1669: ffff80000006e9b0    13 FUNC    LOCAL  HIDDEN     2 _RNvMs_NtNtCs19MhURV36j2_4emkk3vfs3gfsNtB4_17GeneralFileSystem26linux_root_directory_index
  1670: 0000000000000000     0 FILE    LOCAL  DEFAULT  ABS ekqci1i7jsf557s0e9n5q893m
  1671: ffff800000071670    20 FUNC    LOCAL  HIDDEN     2 _RNvMs6_NtNtNtNtCs19MhURV36j2_4emkk7drivers3usb4ehci9registersNtB5_7FrIndex5empty
  1672: ffff800000071690    10 FUNC    LOCAL  HIDDEN     2 _RNvXsh_NtNtNtNtCs19MhURV36j2_4emkk7drivers3usb4ehci9registersNtB5_7FrIndexNtNtCs3i3vE8eoeEl_4core5clone5Clone5cloneBd_
  1673: ffff800000071590   220 FUNC    LOCAL  HIDDEN     2 _RNvMs3_NtNtNtNtCs19MhURV36j2_4emkk7drivers3usb4ehci9registersNtB5_6UsbCmd31set_interrupt_threshold_control
  1674: 0000000000000000     0 FILE    LOCAL  DEFAULT  ABS emghh5x2otc679kgvoaezkxu8
  1675: ffff800000071720    26 FUNC    LOCAL  DEFAULT    2 _RNvMNtNtCs3i3vE8eoeEl_4core3ptr7mut_ptrONtNtNtCs19MhURV36j2_4emkk3aml11definitions13DataRefObject7is_nullBI_
  1676: ffff8000000717e0    26 FUNC    LOCAL  DEFAULT    2 _RNvMNtNtCs3i3vE8eoeEl_4core3ptr9const_ptrPNtNtNtCs19MhURV36j2_4emkk3aml11definitions13DataRefObject7is_nullBK_
  1677: ffff800000071780    26 FUNC    LOCAL  DEFAULT    2 _RNvMNtNtCs3i3vE8eoeEl_4core3ptr7mut_ptrOTNtNtNtCs19MhURV36j2_4emkk3aml11definitions12FieldElementhE7is_nullBJ_
  1678: ffff800000071800    26 FUNC    LOCAL  DEFAULT    2 _RNvMNtNtCs3i3vE8eoeEl_4core3ptr9const_ptrPTNtNtNtCs19MhURV36j2_4emkk3aml11definitions12FieldElementhE7is_nullBL_
  1679: ffff8000000716a0    52 FUNC    LOCAL  HIDDEN     2 _RNvMNtNtCs3i3vE8eoeEl_4core3ptr7mut_ptrONtNtNtCs19MhURV36j2_4emkk3aml11definitions13DataRefObject6as_mutBI_
  1680: ffff8000000716e0    52 FUNC    LOCAL  HIDDEN     2 _RNvMNtNtCs3i3vE8eoeEl_4core3ptr7mut_ptrONtNtNtCs19MhURV36j2_4emkk3aml11definitions13DataRefObject6as_refBI_
  1681: ffff8000000717a0    52 FUNC    LOCAL  HIDDEN     2 _RNvMNtNtCs3i3vE8eoeEl_4core3ptr9const_ptrPNtNtNtCs19MhURV36j2_4emkk3aml11definitions13DataRefObject6as_refBK_
  1682: ffff800000071820    63 FUNC    LOCAL  HIDDEN     2 _RNvXse_NtCs3i3vE8eoeEl_4core5tupleTNtNtNtCs19MhURV36j2_4emkk3aml11definitions12FieldElementhENtNtB7_7default7Default7defaultBD_
  1683: ffff800000071740    52 FUNC    LOCAL  HIDDEN     2 _RNvMNtNtCs3i3vE8eoeEl_4core3ptr7mut_ptrOTNtNtNtCs19MhURV36j2_4emkk3aml11definitions12FieldElementhE6as_mutBJ_
  1684: 0000000000000000     0 FILE    LOCAL  DEFAULT  ABS erzmnju7o01m7dyobdw8dbbpj
  1685: ffff8000000718e0    26 FUNC    LOCAL  DEFAULT    2 _RNvMNtNtCs3i3vE8eoeEl_4core3ptr7mut_ptrOAtj2_7is_nullCs19MhURV36j2_4emkk
  1686: ffff800000071980    26 FUNC    LOCAL  DEFAULT    2 _RNvMNtNtCs3i3vE8eoeEl_4core3ptr7mut_ptrOAtj4_7is_nullCs19MhURV36j2_4emkk
  1687: ffff8000000719f0    36 FUNC    LOCAL  DEFAULT    2 _RNvMNtNtCs3i3vE8eoeEl_4core3ptr7mut_ptrOSh7is_nullCs19MhURV36j2_4emkk
  1688: ffff800000071aa0    26 FUNC    LOCAL  DEFAULT    2 _RNvMNtNtCs3i3vE8eoeEl_4core3ptr7mut_ptrOTthE7is_nullCs19MhURV36j2_4emkk
  1689: ffff800000071b00    26 FUNC    LOCAL  DEFAULT    2 _RNvMNtNtCs3i3vE8eoeEl_4core3ptr7mut_ptrOTthtE7is_nullCs19MhURV36j2_4emkk
  1690: ffff800000071bc0    26 FUNC    LOCAL  DEFAULT    2 _RNvMNtNtCs3i3vE8eoeEl_4core3ptr7mut_ptrOt7is_nullCs19MhURV36j2_4emkk
  1691: ffff800000071c60    26 FUNC    LOCAL  DEFAULT    2 _RNvMNtNtCs3i3vE8eoeEl_4core3ptr7mut_ptrOy7is_nullCs19MhURV36j2_4emkk
  1692: ffff800000071c20    52 FUNC    LOCAL  HIDDEN     2 _RNvMNtNtCs3i3vE8eoeEl_4core3ptr7mut_ptrOy6as_refCs19MhURV36j2_4emkk
  1693: ffff800000071b20    52 FUNC    LOCAL  HIDDEN     2 _RNvMNtNtCs3i3vE8eoeEl_4core3ptr7mut_ptrOm6as_mutCs19MhURV36j2_4emkk
  1694: ffff800000071be0    52 FUNC    LOCAL  HIDDEN     2 _RNvMNtNtCs3i3vE8eoeEl_4core3ptr7mut_ptrOy6as_mutCs19MhURV36j2_4emkk
  1695: ffff800000071b80    52 FUNC    LOCAL  HIDDEN     2 _RNvMNtNtCs3i3vE8eoeEl_4core3ptr7mut_ptrOt6as_mutCs19MhURV36j2_4emkk
  1696: ffff8000000719a0    79 FUNC    LOCAL  HIDDEN     2 _RNvMNtNtCs3i3vE8eoeEl_4core3ptr7mut_ptrOSh6as_mutCs19MhURV36j2_4emkk
  1697: ffff800000071860    52 FUNC    LOCAL  HIDDEN     2 _RNvMNtNtCs3i3vE8eoeEl_4core3ptr7mut_ptrOAtj2_6as_mutCs19MhURV36j2_4emkk
  1698: ffff8000000718a0    52 FUNC    LOCAL  HIDDEN     2 _RNvMNtNtCs3i3vE8eoeEl_4core3ptr7mut_ptrOAtj2_6as_refCs19MhURV36j2_4emkk
  1699: ffff800000071900    52 FUNC    LOCAL  HIDDEN     2 _RNvMNtNtCs3i3vE8eoeEl_4core3ptr7mut_ptrOAtj4_6as_mutCs19MhURV36j2_4emkk
  1700: ffff800000071940    52 FUNC    LOCAL  HIDDEN     2 _RNvMNtNtCs3i3vE8eoeEl_4core3ptr7mut_ptrOAtj4_6as_refCs19MhURV36j2_4emkk
  1701: ffff800000071a20    52 FUNC    LOCAL  HIDDEN     2 _RNvMNtNtCs3i3vE8eoeEl_4core3ptr7mut_ptrOTthE6as_mutCs19MhURV36j2_4emkk
  1702: ffff800000071a60    52 FUNC    LOCAL  HIDDEN     2 _RNvMNtNtCs3i3vE8eoeEl_4core3ptr7mut_ptrOTthE6as_refCs19MhURV36j2_4emkk
  1703: ffff800000071ac0    52 FUNC    LOCAL  HIDDEN     2 _RNvMNtNtCs3i3vE8eoeEl_4core3ptr7mut_ptrOTthtE6as_refCs19MhURV36j2_4emkk
  1704: ffff800000071b60    26 FUNC    LOCAL  HIDDEN     2 _RNvMNtNtCs3i3vE8eoeEl_4core3ptr7mut_ptrOm7is_nullCs19MhURV36j2_4emkk
  1705: 0000000000000000     0 FILE    LOCAL  DEFAULT  ABS eu4duvsyn0he35imkhx1vdzrj
  1706: ffff800000072050    81 FUNC    LOCAL  DEFAULT    2 _RNvMNtNtNtCs19MhURV36j2_4emkk7drivers4disk10nvme_queueNtB2_9NVMeQueue14current_submit
  1707: ffff800000071fc0   138 FUNC    LOCAL  DEFAULT    2 _RNvMNtNtNtCs19MhURV36j2_4emkk7drivers4disk10nvme_queueNtB2_9NVMeQueue14advance_submit
  1708: ffff8000000721b0    80 FUNC    LOCAL  DEFAULT    2 _RNvMNtNtNtCs19MhURV36j2_4emkk7drivers4disk10nvme_queueNtB2_9NVMeQueue18current_completion
  1709: ffff800000072120   138 FUNC    LOCAL  DEFAULT    2 _RNvMNtNtNtCs19MhURV36j2_4emkk7drivers4disk10nvme_queueNtB2_9NVMeQueue18advance_completion
  1710: ffff800000072200   430 FUNC    LOCAL  HIDDEN     2 _RNvMNtNtNtCs19MhURV36j2_4emkk7drivers4disk10nvme_queueNtB2_9NVMeQueue3new
  1711: ffff800000071c80   332 FUNC    LOCAL  HIDDEN     2 _RNvMNtNtNtCs19MhURV36j2_4emkk7drivers4disk10nvme_queueNtB2_9NVMeQueue10issue_read
  1712: ffff800000071f20   160 FUNC    LOCAL  HIDDEN     2 _RNvMNtNtNtCs19MhURV36j2_4emkk7drivers4disk10nvme_queueNtB2_9NVMeQueue13issue_general
  1713: ffff800000071dd0   332 FUNC    LOCAL  HIDDEN     2 _RNvMNtNtNtCs19MhURV36j2_4emkk7drivers4disk10nvme_queueNtB2_9NVMeQueue11issue_write
  1714: ffff8000000720b0   111 FUNC    LOCAL  HIDDEN     2 _RNvMNtNtNtCs19MhURV36j2_4emkk7drivers4disk10nvme_queueNtB2_9NVMeQueue14unissue_silent
  1715: 0000000000000000     0 FILE    LOCAL  DEFAULT  ABS ew9e2oephon02f0eo2jdledvt
  1716: ffff8000000723f0    26 FUNC    LOCAL  DEFAULT    2 _RNvMNtNtCs3i3vE8eoeEl_4core3ptr9const_ptrPNtNtNtCs19MhURV36j2_4emkk7drivers4hpet4HPET7is_nullBK_
  1717: ffff8000000723b0    52 FUNC    LOCAL  HIDDEN     2 _RNvMNtNtCs3i3vE8eoeEl_4core3ptr9const_ptrPNtNtNtCs19MhURV36j2_4emkk7drivers4hpet4HPET6as_refBK_
  1718: 0000000000000000     0 FILE    LOCAL  DEFAULT  ABS f50gfbm8dwirl68qvtuja1fdn
  1719: ffff800000072410  1429 FUNC    LOCAL  DEFAULT    2 _RNvMNtNtNtCs19MhURV36j2_4emkk7drivers3usb4ehciNtB2_4Ehci10initialize
  1720: ffff800000073970  5866 FUNC    LOCAL  DEFAULT    2 _RNvNtNtNtCs19MhURV36j2_4emkk7drivers3usb4ehci14ehci_interrupt
  1721: ffff800000073600   329 FUNC    LOCAL  DEFAULT    2 _RNvMs_NtNtNtCs19MhURV36j2_4emkk7drivers3usb4ehciNtB4_4Ehci5reset
  1722: ffff8000000729b0  2001 FUNC    LOCAL  DEFAULT    2 _RNvMNtNtNtCs19MhURV36j2_4emkk7drivers3usb4ehciNtB2_4Ehci10reset_port
  1723: ffff800000073190   366 FUNC    LOCAL  DEFAULT    2 _RNvMs_NtNtNtCs19MhURV36j2_4emkk7drivers3usb4ehciNtB4_4Ehci10stop_async
  1724: ffff800000073300   369 FUNC    LOCAL  DEFAULT    2 _RNvMs_NtNtNtCs19MhURV36j2_4emkk7drivers3usb4ehciNtB4_4Ehci11start_async
  1725: ffff800000073480   369 FUNC    LOCAL  DEFAULT    2 _RNvMs_NtNtNtCs19MhURV36j2_4emkk7drivers3usb4ehciNtB4_4Ehci14start_periodic
  1726: ffff8000000ac790   304 OBJECT  LOCAL  HIDDEN     4 _RNvNtNtNtCs19MhURV36j2_4emkk7drivers3usb4ehci15EHCI_CONTROLLER
  1727: ffff80000007b120    14 FUNC    LOCAL  HIDDEN     2 _RNvXNtNtNtNtCs19MhURV36j2_4emkk7drivers3usb4ehci19ehc_controller_implNtB4_4EhciNtNtB6_6traits13UsbController24number_of_active_devices
  1728: ffff800000075060   238 FUNC    LOCAL  HIDDEN     2 _RNvXNtNtNtNtCs19MhURV36j2_4emkk7drivers3usb4ehci19ehc_controller_implNtB4_4EhciNtNtB6_6traits13UsbController10get_device
  1729: ffff800000075240   238 FUNC    LOCAL  HIDDEN     2 _RNvXNtNtNtNtCs19MhURV36j2_4emkk7drivers3usb4ehci19ehc_controller_implNtB4_4EhciNtNtB6_6traits13UsbController14get_mut_device
  1730: ffff800000073750   534 FUNC    LOCAL  HIDDEN     2 _RNvNtNtNtCs19MhURV36j2_4emkk7drivers3usb4ehci11create_ehci
  1731: ffff80000007b9d0     9 FUNC    LOCAL  HIDDEN     2 _RNvXNtNtNtNtCs19MhURV36j2_4emkk7drivers3usb4ehci19ehc_controller_implNtB4_4EhciNtNtB6_6traits13UsbController8identity
  1732: ffff800000079c40  2220 FUNC    LOCAL  HIDDEN     2 _RNvXNtNtNtNtCs19MhURV36j2_4emkk7drivers3usb4ehci19ehc_controller_implNtB4_4EhciNtNtB6_6traits13UsbController21initialize_controller
  1733: ffff80000007b130  1014 FUNC    LOCAL  HIDDEN     2 _RNvXNtNtNtNtCs19MhURV36j2_4emkk7drivers3usb4ehci19ehc_controller_implNtB4_4EhciNtNtB6_6traits13UsbController25gather_device_information
  1734: ffff800000079870   967 FUNC    LOCAL  HIDDEN     2 _RNvXNtNtNtNtCs19MhURV36j2_4emkk7drivers3usb4ehci19ehc_controller_implNtB4_4EhciNtNtB6_6traits13UsbController17configure_devices
  1735: ffff80000007b780   578 FUNC    LOCAL  HIDDEN     2 _RNvXNtNtNtNtCs19MhURV36j2_4emkk7drivers3usb4ehci19ehc_controller_implNtB4_4EhciNtNtB6_6traits13UsbController5start
  1736: ffff80000007b540   565 FUNC    LOCAL  HIDDEN     2 _RNvXNtNtNtNtCs19MhURV36j2_4emkk7drivers3usb4ehci19ehc_controller_implNtB4_4EhciNtNtB6_6traits13UsbController4stop
  1737: ffff800000075150   228 FUNC    LOCAL  HIDDEN     2 _RNvXNtNtNtNtCs19MhURV36j2_4emkk7drivers3usb4ehci19ehc_controller_implNtB4_4EhciNtNtB6_6traits13UsbController13error_present
  1738: ffff80000007b530    14 FUNC    LOCAL  HIDDEN     2 _RNvXNtNtNtNtCs19MhURV36j2_4emkk7drivers3usb4ehci19ehc_controller_implNtB4_4EhciNtNtB6_6traits13UsbController27number_of_potential_devices
  1739: ffff800000075330 10588 FUNC    LOCAL  HIDDEN     2 _RNvXNtNtNtNtCs19MhURV36j2_4emkk7drivers3usb4ehci19ehc_controller_implNtB4_4EhciNtNtB6_6traits13UsbController15untraited_work0
  1740: ffff800000077c90     9 FUNC    LOCAL  HIDDEN     2 _RNvXNtNtNtNtCs19MhURV36j2_4emkk7drivers3usb4ehci19ehc_controller_implNtB4_4EhciNtNtB6_6traits13UsbController15untraited_work1
  1741: ffff800000077ca0  7119 FUNC    LOCAL  HIDDEN     2 _RNvXNtNtNtNtCs19MhURV36j2_4emkk7drivers3usb4ehci19ehc_controller_implNtB4_4EhciNtNtB6_6traits13UsbController15untraited_work2
  1742: ffff80000007a4f0  3111 FUNC    LOCAL  HIDDEN     2 _RNvXNtNtNtNtCs19MhURV36j2_4emkk7drivers3usb4ehci19ehc_controller_implNtB4_4EhciNtNtB6_6traits13UsbController24install_interrupt_poller
  1743: 0000000000000000     0 FILE    LOCAL  DEFAULT  ABS core.2655c66ebba3c89f-cgu.02
  1744: ffff80000007c220   140 FUNC    LOCAL  DEFAULT    2 _RNvNvNvNtNtCs3i3vE8eoeEl_4core5slice5index16slice_index_fail8do_panic7runtimeB9_
  1745: ffff80000007c3d0   140 FUNC    LOCAL  DEFAULT    2 _RNvNvNvNtNtCs3i3vE8eoeEl_4core5slice5index16slice_index_fails_8do_panic7runtimeB9_
  1746: ffff80000007c340   140 FUNC    LOCAL  DEFAULT    2 _RNvNvNvNtNtCs3i3vE8eoeEl_4core5slice5index16slice_index_fails1_8do_panic7runtimeB9_
  1747: ffff80000007c2b0   140 FUNC    LOCAL  DEFAULT    2 _RNvNvNvNtNtCs3i3vE8eoeEl_4core5slice5index16slice_index_fails0_8do_panic7runtimeB9_
  1748: ffff80000007bdc0  1115 FUNC    LOCAL  DEFAULT    2 _RNvNtNtCs3i3vE8eoeEl_4core7unicode9printable5check
  1749: ffff80000007c460    83 FUNC    LOCAL  DEFAULT    2 _RNvNvXs0_NtNtCs3i3vE8eoeEl_4core5slice5indexjINtB7_10SliceIndexSpE13get_unchecked18precondition_checkBb_
  1750: ffff80000007c4c0   115 FUNC    LOCAL  DEFAULT    2 _RNvNvXs2_NtNtCs3i3vE8eoeEl_4core5slice5indexINtNtNtBb_3ops5range5RangejEINtB7_10SliceIndexSpE13get_unchecked18precondition_checkBb_
  1751: ffff80000007cc80   169 FUNC    LOCAL  DEFAULT    2 _RNvXs5_NtNtCs3i3vE8eoeEl_4core3str6traitsINtNtNtB9_3ops5range5RangejEINtNtNtB9_5slice5index10SliceIndexeE3getB9_
  1752: ffff80000007cef0   115 FUNC    LOCAL  DEFAULT    2 _RNvXs8_NtNtCs3i3vE8eoeEl_4core3str6traitsINtNtNtB9_3ops5range7RangeTojEINtNtNtB9_5slice5index10SliceIndexeE3getB9_
  1753: ffff80000007d060   115 FUNC    LOCAL  DEFAULT    2 _RNvXs9_NtNtCs3i3vE8eoeEl_4core3str6traitsINtNtNtB9_3ops5range9RangeFromjEINtNtNtB9_5slice5index10SliceIndexeE3getB9_
  1754: ffff80000007baa0    44 FUNC    LOCAL  HIDDEN     2 _RNvMs_NtNtCs3i3vE8eoeEl_4core5ascii10ascii_charSNtB4_9AsciiChar6as_strB8_
  1755: ffff80000007cb90   231 FUNC    LOCAL  HIDDEN     2 _RNvXs5_NtNtCs3i3vE8eoeEl_4core3str6traitsINtNtNtB9_3ops5range5RangejEINtNtNtB9_5slice5index10SliceIndexeE13get_uncheckedB9_
  1756: ffff80000007cd30   155 FUNC    LOCAL  HIDDEN     2 _RNvXs5_NtNtCs3i3vE8eoeEl_4core3str6traitsINtNtNtB9_3ops5range5RangejEINtNtNtB9_5slice5index10SliceIndexeE5indexB9_
  1757: ffff80000007cec0    48 FUNC    LOCAL  HIDDEN     2 _RNvXs8_NtNtCs3i3vE8eoeEl_4core3str6traitsINtNtNtB9_3ops5range7RangeTojEINtNtNtB9_5slice5index10SliceIndexeE13get_uncheckedB9_
  1758: ffff80000007cf70   141 FUNC    LOCAL  HIDDEN     2 _RNvXs8_NtNtCs3i3vE8eoeEl_4core3str6traitsINtNtNtB9_3ops5range7RangeTojEINtNtNtB9_5slice5index10SliceIndexeE5indexB9_
  1759: ffff80000007d000    93 FUNC    LOCAL  HIDDEN     2 _RNvXs9_NtNtCs3i3vE8eoeEl_4core3str6traitsINtNtNtB9_3ops5range9RangeFromjEINtNtNtB9_5slice5index10SliceIndexeE13get_uncheckedB9_
  1760: ffff80000007d0e0   188 FUNC    LOCAL  HIDDEN     2 _RNvXs9_NtNtCs3i3vE8eoeEl_4core3str6traitsINtNtNtB9_3ops5range9RangeFromjEINtNtNtB9_5slice5index10SliceIndexeE5indexB9_
  1761: ffff80000007d2b0    37 FUNC    LOCAL  HIDDEN     2 _RNvXsb_NtCs3i3vE8eoeEl_4core3cmpNtB5_8OrderingNtB5_9PartialEq2eqB7_
  1762: ffff80000007d2e0    24 FUNC    LOCAL  HIDDEN     2 _RNvYNvYhNtNtCs3i3vE8eoeEl_4core5clone5Clone5cloneINtNtNtBa_3ops8function6FnOnceTRhEE9call_onceBa_
  1763: 0000000000000000     0 FILE    LOCAL  DEFAULT  ABS core.2655c66ebba3c89f-cgu.00
  1764: ffff80000007d390    65 FUNC    LOCAL  DEFAULT    2 _RNvMs0_NtCs3i3vE8eoeEl_4core3numl12wrapping_absB7_
  1765: ffff80000007d440    30 FUNC    LOCAL  DEFAULT    2 _RNvMs5_NtCs3i3vE8eoeEl_4core3numt13from_ne_bytesB7_
  1766: ffff80000007d4a0    17 FUNC    LOCAL  DEFAULT    2 _RNvMs6_NtCs3i3vE8eoeEl_4core3numm13from_ne_bytesB7_
  1767: ffff80000007d5a0    27 FUNC    LOCAL  DEFAULT    2 _RNvMs9_NtCs3i3vE8eoeEl_4core3numj13from_ne_bytesB7_
  1768: ffff80000007d380    12 FUNC    LOCAL  HIDDEN     2 _RNvMs0_NtCs3i3vE8eoeEl_4core3numl12unsigned_absB7_
  1769: ffff80000007d3e0    22 FUNC    LOCAL  HIDDEN     2 _RNvMs4_NtCs3i3vE8eoeEl_4core3numh21is_utf8_char_boundaryB7_
  1770: ffff80000007d400    62 FUNC    LOCAL  HIDDEN     2 _RNvMs5_NtCs3i3vE8eoeEl_4core3numt13from_le_bytesB7_
  1771: ffff80000007d460    50 FUNC    LOCAL  HIDDEN     2 _RNvMs6_NtCs3i3vE8eoeEl_4core3numm13from_le_bytesB7_
  1772: ffff80000007d4c0   144 FUNC    LOCAL  HIDDEN     2 _RNvMs9_NtCs3i3vE8eoeEl_4core3numj11checked_mulB7_
  1773: ffff80000007d550    80 FUNC    LOCAL  HIDDEN     2 _RNvMs9_NtCs3i3vE8eoeEl_4core3numj11checked_subB7_
  1774: ffff80000007d5c0   113 FUNC    LOCAL  HIDDEN     2 _RNvMs9_NtCs3i3vE8eoeEl_4core3numj14is_multiple_ofB7_
  1775: ffff80000007d640   202 FUNC    LOCAL  HIDDEN     2 _RNvMs9_NtCs3i3vE8eoeEl_4core3numj8abs_diffB7_
  1776: ffff80000007d710    54 FUNC    LOCAL  HIDDEN     2 _RNvMsa_NtCs3i3vE8eoeEl_4core3numj9repeat_u8B7_
  1777: ffff80000007d750   114 FUNC    LOCAL  HIDDEN     2 _RNvNvMs4_NtCs3i3vE8eoeEl_4core3numh13unchecked_add18precondition_checkB9_
  1778: ffff80000007d7d0   125 FUNC    LOCAL  HIDDEN     2 _RNvNvMs5_NtCs3i3vE8eoeEl_4core3numt13unchecked_add18precondition_checkB9_
  1779: ffff80000007d850   120 FUNC    LOCAL  HIDDEN     2 _RNvNvMs9_NtCs3i3vE8eoeEl_4core3numj13unchecked_add18precondition_checkB9_
  1780: 0000000000000000     0 FILE    LOCAL  DEFAULT  ABS core.2655c66ebba3c89f-cgu.01
  1781: ffff80000007d900    68 FUNC    LOCAL  HIDDEN     2 _RNvXs5_NtNtCs3i3vE8eoeEl_4core3num5errorNtB5_15TryFromIntErrorNtNtB9_3fmt5Debug3fmtB9_
  1782: 0000000000000000     0 FILE    LOCAL  DEFAULT  ABS core.2655c66ebba3c89f-cgu.03
  1783: ffff80000007ec80    87 FUNC    LOCAL  HIDDEN     2 _RNvXsx_NtNtCs3i3vE8eoeEl_4core4iter5rangehNtB5_4Step17forward_uncheckedB9_
  1784: ffff80000007ea10    85 FUNC    LOCAL  HIDDEN     2 _RNvXsF_NtNtCs3i3vE8eoeEl_4core4iter5rangejNtB5_4Step17forward_uncheckedB9_
  1785: ffff80000007ece0    97 FUNC    LOCAL  HIDDEN     2 _RNvXsz_NtNtCs3i3vE8eoeEl_4core4iter5rangetNtB5_4Step17forward_uncheckedB9_
  1786: ffff80000007e870   330 FUNC    LOCAL  HIDDEN     2 _RNvXs3_NtNtCs3i3vE8eoeEl_4core3str4iterNtB5_11CharIndicesNtNtNtNtB9_4iter6traits8iterator8Iterator4nextB9_
  1787: ffff80000007e2a0    21 FUNC    LOCAL  HIDDEN     2 _RNvXNtNtCs3i3vE8eoeEl_4core3str4iterNtB2_5CharsNtNtNtNtB6_4iter6traits8iterator8Iterator4nextB6_
  1788: ffff80000007dca0    23 FUNC    LOCAL  HIDDEN     2 _RNvMs2_NtNtCs3i3vE8eoeEl_4core3str4iterNtB5_5Chars6as_strB9_
  1789: ffff80000007dcf0    11 FUNC    LOCAL  HIDDEN     2 _RNvMs4_NtNtCs3i3vE8eoeEl_4core5panic8locationNtB5_8Location6callerB9_
  1790: ffff80000007e070    11 FUNC    LOCAL  HIDDEN     2 _RNvMs6_NtNtCs3i3vE8eoeEl_4core3str4iterNtB5_11CharIndices6offsetB9_
  1791: ffff80000007e2c0    40 FUNC    LOCAL  HIDDEN     2 _RNvXNtNtCs3i3vE8eoeEl_4core3str4iterNtB2_5CharsNtNtNtNtB6_4iter6traits8iterator8Iterator5countB6_
  1792: 0000000000000000     0 FILE    LOCAL  DEFAULT  ABS core.2655c66ebba3c89f-cgu.04
  1793: ffff80000007ee70    63 FUNC    LOCAL  DEFAULT    2 _RNvNvNtCs3i3vE8eoeEl_4core4hint21unreachable_unchecked18precondition_checkB5_
  1794: ffff80000007f710   129 FUNC    LOCAL  HIDDEN     2 _RNvXsZ_NtNtCs3i3vE8eoeEl_4core3fmt3numjNtB7_5Debug3fmtB9_
  1795: ffff80000007f5f0   129 FUNC    LOCAL  HIDDEN     2 _RNvXsW_NtNtCs3i3vE8eoeEl_4core3fmt3nummNtB7_5Debug3fmtB9_
  1796: ffff80000007f680   129 FUNC    LOCAL  HIDDEN     2 _RNvXsX_NtNtCs3i3vE8eoeEl_4core3fmt3numyNtB7_5Debug3fmtB9_
  1797: ffff80000007ee10    86 FUNC    LOCAL  HIDDEN     2 _RNvNvNtCs3i3vE8eoeEl_4core4hint16assert_unchecked18precondition_checkB5_
  1798: ffff8000000ad0e0     8 OBJECT  LOCAL  HIDDEN     4 _RNvNtNtCs3i3vE8eoeEl_4core3fmt3num13DECIMAL_PAIRS
  1799: ffff80000007edc0    66 FUNC    LOCAL  HIDDEN     2 _RNvNtNtCs3i3vE8eoeEl_4core3fmt3num19slice_buffer_to_str
  1800: ffff80000007eda0    27 FUNC    LOCAL  HIDDEN     2 _RNvNtCs3i3vE8eoeEl_4core4hint21unreachable_uncheckedB3_
  1801: 0000000000000000     0 FILE    LOCAL  DEFAULT  ABS core.2655c66ebba3c89f-cgu.05
  1802: ffff800000080ae0   230 FUNC    LOCAL  DEFAULT    2 _RNvNvNtCs3i3vE8eoeEl_4core3ptr12align_offset7mod_invB5_
  1803: ffff800000080cd0   106 FUNC    LOCAL  DEFAULT    2 _RNvNvNtCs3i3vE8eoeEl_4core3ptr4read18precondition_checkB5_
  1804: ffff800000080870    67 FUNC    LOCAL  DEFAULT    2 _RNvNtNtCs3i3vE8eoeEl_4core3str11validations15utf8_first_byteB5_
  1805: ffff8000000808e0    26 FUNC    LOCAL  DEFAULT    2 _RNvNtNtCs3i3vE8eoeEl_4core3str11validations18utf8_acc_cont_byteB5_
  1806: ffff800000080e40   145 FUNC    LOCAL  DEFAULT    2 _RNvNvNtNtCs3i3vE8eoeEl_4core5slice3raw14from_raw_parts18precondition_checkB7_
  1807: ffff800000080ee0   145 FUNC    LOCAL  DEFAULT    2 _RNvNvNtNtCs3i3vE8eoeEl_4core5slice3raw18from_raw_parts_mut18precondition_checkB7_
  1808: ffff800000080ac0    32 FUNC    LOCAL  DEFAULT    2 _RNvNvMNtNtCs3i3vE8eoeEl_4core3ptr9const_ptrPp7is_null7runtimeB8_
  1809: ffff800000080710    26 FUNC    LOCAL  DEFAULT    2 _RNvNtCs3i3vE8eoeEl_4core9ub_checks16maybe_is_alignedB3_
  1810: ffff800000080d40    26 FUNC    LOCAL  DEFAULT    2 _RNvNvNtCs3i3vE8eoeEl_4core9ub_checks16maybe_is_aligned7runtimeB5_
  1811: ffff800000080d60     5 FUNC    LOCAL  DEFAULT    2 _RNvNvNtCs3i3vE8eoeEl_4core9ub_checks17check_language_ub7runtimeB5_
  1812: ffff800000080750    76 FUNC    LOCAL  DEFAULT    2 _RNvNtCs3i3vE8eoeEl_4core9ub_checks23maybe_is_nonoverlappingB3_
  1813: ffff800000080d70   199 FUNC    LOCAL  DEFAULT    2 _RNvNvNtCs3i3vE8eoeEl_4core9ub_checks23maybe_is_nonoverlapping7runtimeB5_
  1814: ffff8000000807a0   111 FUNC    LOCAL  DEFAULT    2 _RNvNtCs3i3vE8eoeEl_4core9ub_checks24is_valid_allocation_sizeB3_
  1815: ffff800000080810    93 FUNC    LOCAL  DEFAULT    2 _RNvNtCs3i3vE8eoeEl_4core9ub_checks29maybe_is_aligned_and_not_nullB3_
  1816: ffff800000080960    61 FUNC    LOCAL  DEFAULT    2 _RNvNvMNtNtCs3i3vE8eoeEl_4core3ptr7mut_ptrOp3add18runtime_add_nowrapB8_
  1817: ffff800000080f80   216 FUNC    LOCAL  DEFAULT    2 _RNvNvNvMNtNtCs3i3vE8eoeEl_4core3ptr7mut_ptrOp3add18runtime_add_nowrap7runtimeBa_
  1818: ffff800000081060    26 FUNC    LOCAL  DEFAULT    2 _RNvNvNvMNtNtCs3i3vE8eoeEl_4core3ptr9const_ptrPp20offset_from_unsigned14runtime_ptr_ge7runtimeBa_
  1819: ffff800000080a80    61 FUNC    LOCAL  DEFAULT    2 _RNvNvMNtNtCs3i3vE8eoeEl_4core3ptr9const_ptrPp3add18runtime_add_nowrapB8_
  1820: ffff800000081080   216 FUNC    LOCAL  DEFAULT    2 _RNvNvNvMNtNtCs3i3vE8eoeEl_4core3ptr9const_ptrPp3add18runtime_add_nowrap7runtimeBa_
  1821: ffff800000080730    30 FUNC    LOCAL  HIDDEN     2 _RNvNtCs3i3vE8eoeEl_4core9ub_checks17check_language_ubB3_
  1822: ffff800000080a20    94 FUNC    LOCAL  HIDDEN     2 _RNvNvMNtNtCs3i3vE8eoeEl_4core3ptr9const_ptrPp3add18precondition_checkB8_
  1823: ffff800000081220    29 FUNC    LOCAL  HIDDEN     2 _RNvXs11_NtNtCs3i3vE8eoeEl_4core3cmp5implsmNtB8_3Ord3cmpBa_
  1824: ffff800000080900    94 FUNC    LOCAL  HIDDEN     2 _RNvNvMNtNtCs3i3vE8eoeEl_4core3ptr7mut_ptrOp3add18precondition_checkB8_
  1825: ffff8000000809c0    87 FUNC    LOCAL  HIDDEN     2 _RNvNvMNtNtCs3i3vE8eoeEl_4core3ptr9const_ptrPp20offset_from_unsigned18precondition_checkB8_
  1826: ffff8000000808c0    22 FUNC    LOCAL  HIDDEN     2 _RNvNtNtCs3i3vE8eoeEl_4core3str11validations17utf8_is_cont_byteB5_
  1827: ffff800000080bd0   254 FUNC    LOCAL  HIDDEN     2 _RNvNvNtCs3i3vE8eoeEl_4core3ptr19copy_nonoverlapping18precondition_checkB5_
  1828: ffff8000000811e0    55 FUNC    LOCAL  HIDDEN     2 _RNvXNtNtNtCs3i3vE8eoeEl_4core7convert3num18ptr_try_from_implshINtB6_7TryFromjE8try_fromB8_
  1829: ffff8000000812e0    63 FUNC    LOCAL  HIDDEN     2 _RNvXsn_NtNtNtCs3i3vE8eoeEl_4core7convert3num18ptr_try_from_implsjINtB9_7TryFromlE8try_fromBb_
  1830: 0000000000000000     0 FILE    LOCAL  DEFAULT  ABS core.2655c66ebba3c89f-cgu.06
  1831: ffff800000081860    16 FUNC    LOCAL  DEFAULT    2 _RNvMs9_NtCs3i3vE8eoeEl_4core3fmtNtB5_11PostPadding3new
  1832: ffff800000083120   208 FUNC    LOCAL  DEFAULT    2 _RNvNvMsa_NtCs3i3vE8eoeEl_4core3fmtNtB7_9Formatter12pad_integral12write_prefix
  1833: ffff800000083750    49 FUNC    LOCAL  DEFAULT    2 _RNvXss_NtCs3i3vE8eoeEl_4core3fmtuNtB5_5Debug3fmtB7_
  1834: ffff800000081820    50 FUNC    LOCAL  HIDDEN     2 _RNvMs4_NtCs3i3vE8eoeEl_4core3fmtNtB5_9Arguments8from_strB7_
  1835: ffff8000000826e0   156 FUNC    LOCAL  HIDDEN     2 _RNvMsa_NtCs3i3vE8eoeEl_4core3fmtNtB5_9Formatter9write_fmtB7_
  1836: ffff8000000831f0   115 FUNC    LOCAL  HIDDEN     2 _RNvNvXs5_NtNtCs3i3vE8eoeEl_4core3str6traitsINtNtNtBb_3ops5range5RangejEINtNtNtBb_5slice5index10SliceIndexeE13get_unchecked18precondition_checkBb_
  1837: ffff8000000834a0    86 FUNC    LOCAL  HIDDEN     2 _RNvXs_NtNtCs3i3vE8eoeEl_4core3str6traitseNtNtB8_3cmp9PartialEq2eqB8_
  1838: ffff800000081560   118 FUNC    LOCAL  HIDDEN     2 _RINvMsa_NtCs3i3vE8eoeEl_4core3fmtNtB6_9Formatter8wrap_bufNCNvMs_NtB6_8buildersNtB10_10PadAdapter4wrap0EB8_
  1839: ffff800000081740    92 FUNC    LOCAL  HIDDEN     2 _RNvMs4_NtCs3i3vE8eoeEl_4core3fmtNtB5_9Arguments23as_statically_known_strB7_
  1840: ffff8000000817a0   116 FUNC    LOCAL  HIDDEN     2 _RNvMs4_NtCs3i3vE8eoeEl_4core3fmtNtB5_9Arguments6as_strB7_
  1841: ffff800000081870   152 FUNC    LOCAL  HIDDEN     2 _RNvMs9_NtCs3i3vE8eoeEl_4core3fmtNtB5_11PostPadding5write
  1842: ffff800000082530   356 FUNC    LOCAL  HIDDEN     2 _RNvMsa_NtCs3i3vE8eoeEl_4core3fmtNtB5_9Formatter7padding
  1843: 0000000000000000     0 FILE    LOCAL  DEFAULT  ABS core.2655c66ebba3c89f-cgu.07
  1844: 0000000000000000     0 FILE    LOCAL  DEFAULT  ABS core.2655c66ebba3c89f-cgu.08
  1845: ffff800000085120   231 FUNC    LOCAL  DEFAULT    2 _RNvXs2_NtNtCs3i3vE8eoeEl_4core3str7patterncNtB5_7Pattern13into_searcherB9_
  1846: ffff8000000850c0    96 FUNC    LOCAL  DEFAULT    2 _RNvXs2_NtNtCs3i3vE8eoeEl_4core3str7patterncNtB5_7Pattern12is_suffix_ofB9_
  1847: ffff800000083a50   386 FUNC    LOCAL  DEFAULT    2 _RNvMNtCs3i3vE8eoeEl_4core3stre18ceil_char_boundaryB4_
  1848: ffff800000083be0   349 FUNC    LOCAL  DEFAULT    2 _RNvMNtCs3i3vE8eoeEl_4core3stre19floor_char_boundaryB4_
  1849: ffff8000000848a0   217 FUNC    LOCAL  DEFAULT    2 _RNvNtNtCs3i3vE8eoeEl_4core5slice6memchr12memchr_naiveB5_
  1850: ffff800000084ac0  1532 FUNC    LOCAL  DEFAULT    2 _RNvNvNtNtCs3i3vE8eoeEl_4core5slice6memchr14memchr_aligned7runtimeB7_
  1851: ffff8000000849c0    78 FUNC    LOCAL  DEFAULT    2 _RNvNtNtCs3i3vE8eoeEl_4core5slice6memchr18contains_zero_byteB5_
  1852: ffff800000085680    82 FUNC    LOCAL  DEFAULT    2 _RNvXst_NtNtCs3i3vE8eoeEl_4core3str7patternReNtB5_7Pattern12is_suffix_ofB9_
  1853: ffff800000083970   214 FUNC    LOCAL  HIDDEN     2 _RNvMNtCs3i3vE8eoeEl_4core3stre16is_char_boundaryB4_
  1854: ffff800000083d40    31 FUNC    LOCAL  HIDDEN     2 _RNvMNtCs3i3vE8eoeEl_4core3stre3lenB4_
  1855: ffff800000083d60    34 FUNC    LOCAL  HIDDEN     2 _RNvMNtCs3i3vE8eoeEl_4core3stre5charsB4_
  1856: ffff800000085540    14 FUNC    LOCAL  HIDDEN     2 _RNvXs_NtNtCs3i3vE8eoeEl_4core3str7patternNtB4_12CharSearcherNtB4_8Searcher8haystackB8_
  1857: ffff800000085210   804 FUNC    LOCAL  HIDDEN     2 _RNvXs_NtNtCs3i3vE8eoeEl_4core3str7patternNtB4_12CharSearcherNtB4_8Searcher10next_matchB8_
  1858: ffff800000084a10   164 FUNC    LOCAL  HIDDEN     2 _RNvNtNtCs3i3vE8eoeEl_4core5slice6memchr6memchrB5_
  1859: ffff800000083d90    33 FUNC    LOCAL  HIDDEN     2 _RNvMNtCs3i3vE8eoeEl_4core3stre8is_emptyB4_
  1860: ffff800000083910    88 FUNC    LOCAL  HIDDEN     2 _RNvMNtCs3i3vE8eoeEl_4core3stre12char_indicesB4_
  1861: ffff800000083de0    91 FUNC    LOCAL  HIDDEN     2 _RNvMNtNtCs3i3vE8eoeEl_4core5panic10panic_infoNtB2_9PanicInfo3newB6_
  1862: 0000000000000000     0 FILE    LOCAL  DEFAULT  ABS core.2655c66ebba3c89f-cgu.09
  1863: 0000000000000000     0 FILE    LOCAL  DEFAULT  ABS core.2655c66ebba3c89f-cgu.10
  1864: ffff800000086490  3354 FUNC    LOCAL  DEFAULT    2 _RNvMs0_NtNtNtCs3i3vE8eoeEl_4core3fmt3num3imph10__fmt_inner
  1865: ffff800000087200  3403 FUNC    LOCAL  DEFAULT    2 _RNvMs5_NtNtNtCs3i3vE8eoeEl_4core3fmt3num3impt10__fmt_inner
  1866: ffff800000088060  3330 FUNC    LOCAL  DEFAULT    2 _RNvMsa_NtNtNtCs3i3vE8eoeEl_4core3fmt3num3impm10__fmt_inner
  1867: ffff800000088db0  3367 FUNC    LOCAL  DEFAULT    2 _RNvMsf_NtNtNtCs3i3vE8eoeEl_4core3fmt3num3impy10__fmt_inner
  1868: ffff800000089b20  3367 FUNC    LOCAL  DEFAULT    2 _RNvMsk_NtNtNtCs3i3vE8eoeEl_4core3fmt3num3impj10__fmt_inner
  1869: ffff80000008a900    74 FUNC    LOCAL  HIDDEN     2 _RNvXs2T_NtNtCs3i3vE8eoeEl_4core7convert3numhINtB8_7TryFromlE8try_fromBa_
  1870: ffff80000008a9b0    54 FUNC    LOCAL  HIDDEN     2 _RNvXs2V_NtNtCs3i3vE8eoeEl_4core7convert3nummINtB8_7TryFromlE8try_fromBa_
  1871: ffff80000008a950    81 FUNC    LOCAL  HIDDEN     2 _RNvXs2U_NtNtCs3i3vE8eoeEl_4core7convert3numtINtB8_7TryFromlE8try_fromBa_
  1872: ffff80000008a9f0    63 FUNC    LOCAL  HIDDEN     2 _RNvXs2W_NtNtCs3i3vE8eoeEl_4core7convert3numyINtB8_7TryFromlE8try_fromBa_
  1873: ffff80000008ab10    26 FUNC    LOCAL  HIDDEN     2 _RNvXsc_NtCs3i3vE8eoeEl_4core4charNtB5_11EscapeDebugNtNtB7_3fmt7Display3fmtB7_
  1874: ffff800000087fa0    58 FUNC    LOCAL  HIDDEN     2 _RNvMs8_NtCs3i3vE8eoeEl_4core4charNtB5_11EscapeDebug7unicodeB7_
  1875: ffff800000087fe0    64 FUNC    LOCAL  HIDDEN     2 _RNvMs8_NtCs3i3vE8eoeEl_4core4charNtB5_11EscapeDebug9backslashB7_
  1876: ffff800000088020    58 FUNC    LOCAL  HIDDEN     2 _RNvMs8_NtCs3i3vE8eoeEl_4core4charNtB5_11EscapeDebug9printableB7_
  1877: 0000000000000000     0 FILE    LOCAL  DEFAULT  ABS core.2655c66ebba3c89f-cgu.11
  1878: 0000000000000000     0 FILE    LOCAL  DEFAULT  ABS core.2655c66ebba3c89f-cgu.12
  1879: 0000000000000000     0 FILE    LOCAL  DEFAULT  ABS core.2655c66ebba3c89f-cgu.13
  1880: ffff80000008c0c0   204 FUNC    LOCAL  DEFAULT    2 _RNvNtNtCs3i3vE8eoeEl_4core3str5count18sum_bytes_in_usizeB5_
  1881: ffff80000008c1c0    38 FUNC    LOCAL  DEFAULT    2 _RNvNtNtCs3i3vE8eoeEl_4core3str5count30contains_non_continuation_byteB5_
  1882: ffff800000099b68   132 OBJECT  LOCAL  DEFAULT    3 _RNvNtNtNtCs3i3vE8eoeEl_4core7unicode12unicode_data15grapheme_extend17SHORT_OFFSET_RUNS
  1883: ffff800000099866   767 OBJECT  LOCAL  DEFAULT    3 _RNvNtNtNtCs3i3vE8eoeEl_4core7unicode12unicode_data15grapheme_extend7OFFSETS
  1884: ffff80000008bac0   145 FUNC    LOCAL  HIDDEN     2 _RNvNtNtCs3i3vE8eoeEl_4core3str5count11count_charsB5_
  1885: ffff80000008ba70    39 FUNC    LOCAL  HIDDEN     2 _RNCNvNtNtCs3i3vE8eoeEl_4core3str5count23char_count_general_case0B7_
  1886: ffff80000008c580    80 FUNC    LOCAL  HIDDEN     2 _RNvNtNtNtCs3i3vE8eoeEl_4core7unicode12unicode_data15grapheme_extend6lookupB7_
  1887: 0000000000000000     0 FILE    LOCAL  DEFAULT  ABS core.2655c66ebba3c89f-cgu.14
  1888: ffff80000008cc50    42 FUNC    LOCAL  DEFAULT    2 _RNCNvMs1_NtNtCs3i3vE8eoeEl_4core3fmt8buildersNtB7_11DebugStruct5field0Bb_
  1889: ffff80000008ccf0    42 FUNC    LOCAL  DEFAULT    2 _RNCNvMs2_NtNtCs3i3vE8eoeEl_4core3fmt8buildersNtB7_10DebugTuple5field0Bb_
  1890: ffff80000008d5d0    88 FUNC    LOCAL  DEFAULT    2 _RNvNvNtCs3i3vE8eoeEl_4core9panicking18panic_nounwind_fmt7runtimeB5_
  1891: ffff80000008cdc0    58 FUNC    LOCAL  HIDDEN     2 _RNCNvMs_NtNtCs3i3vE8eoeEl_4core3fmt8buildersNtB6_10PadAdapter4wrap0Ba_
  1892: ffff80000008d4b0   147 FUNC    LOCAL  HIDDEN     2 _RNvNtNtCs3i3vE8eoeEl_4core3fmt8builders15debug_tuple_new
  1893: ffff80000008d550   115 FUNC    LOCAL  HIDDEN     2 _RNvNtNtCs3i3vE8eoeEl_4core3fmt8builders16debug_struct_new
  1894: ffff80000008cc80    98 FUNC    LOCAL  HIDDEN     2 _RNCNvMs1_NtNtCs3i3vE8eoeEl_4core3fmt8buildersNtB7_11DebugStruct6finish0Bb_
  1895: ffff80000008cd20   158 FUNC    LOCAL  HIDDEN     2 _RNCNvMs2_NtNtCs3i3vE8eoeEl_4core3fmt8buildersNtB7_10DebugTuple6finish0Bb_
  1896: 0000000000000000     0 FILE    LOCAL  DEFAULT  ABS core.2655c66ebba3c89f-cgu.15
  1897: ffff80000008fa40   115 FUNC    LOCAL  DEFAULT    2 _RNvNvMNtCs3i3vE8eoeEl_4core5sliceSp19as_chunks_unchecked18precondition_checkB6_
  1898: ffff80000008ea80    23 FUNC    LOCAL  DEFAULT    2 _RNCINvNtNtCs3i3vE8eoeEl_4core7unicode12unicode_data11skip_searchKj21_Kj2ff_E0B8_
  1899: ffff80000008f4f0    14 FUNC    LOCAL  DEFAULT    2 _RNvMNtNtCs3i3vE8eoeEl_4core7unicode12unicode_dataNtB2_20ShortOffsetRunHeader10prefix_sumB6_
  1900: ffff80000008f9e0    83 FUNC    LOCAL  DEFAULT    2 _RNvNvMNtCs3i3vE8eoeEl_4core5sliceSp18split_at_unchecked18precondition_checkB6_
  1901: ffff80000008f620   211 FUNC    LOCAL  DEFAULT    2 _RNvNtNtCs3i3vE8eoeEl_4core4char7methods15encode_utf8_rawB5_
  1902: ffff80000008f4b0    45 FUNC    LOCAL  DEFAULT    2 _RNvMNtNtCs3i3vE8eoeEl_4core4char7methodsc20is_grapheme_extendedB6_
  1903: ffff80000008f5e0    51 FUNC    LOCAL  DEFAULT    2 _RNvNtNtCs3i3vE8eoeEl_4core4char7convert18from_u32_uncheckedB5_
  1904: ffff80000008f970    98 FUNC    LOCAL  DEFAULT    2 _RNvNtNtCs3i3vE8eoeEl_4core4char7methods8len_utf8B5_
  1905: ffff80000008f590    68 FUNC    LOCAL  DEFAULT    2 _RNvNtNtCs3i3vE8eoeEl_4core4char7convert17char_try_from_u32B5_
  1906: ffff80000008faf0    97 FUNC    LOCAL  DEFAULT    2 _RNvNvNtNtCs3i3vE8eoeEl_4core4char7convert18from_u32_unchecked18precondition_checkB7_
  1907: ffff80000008f700   620 FUNC    LOCAL  DEFAULT    2 _RNvNtNtCs3i3vE8eoeEl_4core4char7methods25encode_utf8_raw_uncheckedB5_
  1908: ffff80000008fb60   204 FUNC    LOCAL  DEFAULT    2 _RNvNvNvNtNtCs3i3vE8eoeEl_4core4char7methods15encode_utf8_raw8do_panic7runtimeB9_
  1909: ffff80000008fc30   140 FUNC    LOCAL  DEFAULT    2 _RNvNvNvNvNtCs3i3vE8eoeEl_4core5slice20copy_from_slice_impl17len_mismatch_fail8do_panic7runtimeB9_
  1910: ffff80000008f310   370 FUNC    LOCAL  HIDDEN     2 _RNvMNtNtCs3i3vE8eoeEl_4core4char7methodsc16escape_debug_extB6_
  1911: ffff80000008f550    24 FUNC    LOCAL  HIDDEN     2 _RNvNtNtCs3i3vE8eoeEl_4core3str8converts19from_utf8_uncheckedB5_
  1912: ffff80000008f490    19 FUNC    LOCAL  HIDDEN     2 _RNvMNtNtCs3i3vE8eoeEl_4core4char7methodsc18from_u32_uncheckedB6_
  1913: ffff80000008f500    14 FUNC    LOCAL  HIDDEN     2 _RNvMNtNtCs3i3vE8eoeEl_4core7unicode12unicode_dataNtB2_20ShortOffsetRunHeader11start_indexB6_
  1914: ffff80000008f530    24 FUNC    LOCAL  HIDDEN     2 _RNvNtNtCs3i3vE8eoeEl_4core3str8converts14from_raw_partsB5_
  1915: ffff80000008f210    98 FUNC    LOCAL  HIDDEN     2 _RNvMNtNtCs3i3vE8eoeEl_4core3fmt2rtNtB2_8Argument3fmtB6_
  1916: ffff80000008f280    88 FUNC    LOCAL  HIDDEN     2 _RNvMNtNtCs3i3vE8eoeEl_4core3fmt2rtNtB2_8Argument6as_u16B6_
  1917: ffff80000008f4e0    15 FUNC    LOCAL  HIDDEN     2 _RNvMNtNtCs3i3vE8eoeEl_4core4char7methodsc8is_asciiB6_
  1918: ffff80000008f2e0    39 FUNC    LOCAL  HIDDEN     2 _RNvMNtNtCs3i3vE8eoeEl_4core4char7methodsc11encode_utf8B6_
  1919: ffff80000008f570    24 FUNC    LOCAL  HIDDEN     2 _RNvNtNtCs3i3vE8eoeEl_4core3str8converts23from_utf8_unchecked_mutB5_
  1920: ffff80000008eaa0    79 FUNC    LOCAL  HIDDEN     2 _RNCINvNtNtCs3i3vE8eoeEl_4core7unicode12unicode_data11skip_searchKj21_Kj2ff_Es_0B8_
  1921: 0000000000000000     0 FILE    LOCAL  DEFAULT  ABS compiler_builtins.ff530eda61515420-cgu.01
  1922: ffff80000008fd00    31 FUNC    LOCAL  HIDDEN     2 _RNvMNtCs3i3vE8eoeEl_4core3stre3lenCslV5kHK6gfBc_17compiler_builtins
  1923: 0000000000000000     0 FILE    LOCAL  DEFAULT  ABS compiler_builtins.ff530eda61515420-cgu.00
  1924: 0000000000000000     0 FILE    LOCAL  DEFAULT  ABS compiler_builtins.ff530eda61515420-cgu.02
  1925: 0000000000000000     0 FILE    LOCAL  DEFAULT  ABS compiler_builtins.ff530eda61515420-cgu.03
  1926: ffff80000008fd80    46 FUNC    LOCAL  HIDDEN     2 _RNvXso_NtNtCs3i3vE8eoeEl_4core3cmp5implsoNtB7_9PartialEq2neCslV5kHK6gfBc_17compiler_builtins
  1927: ffff80000008fd60    29 FUNC    LOCAL  HIDDEN     2 _RNvXsn_NtNtCs3i3vE8eoeEl_4core3cmp5implsyNtB7_9PartialEq2neCslV5kHK6gfBc_17compiler_builtins
  1928: ffff80000008fd40    27 FUNC    LOCAL  HIDDEN     2 _RNvXsm_NtNtCs3i3vE8eoeEl_4core3cmp5implsmNtB7_9PartialEq2neCslV5kHK6gfBc_17compiler_builtins
  1929: ffff80000008fd20    29 FUNC    LOCAL  HIDDEN     2 _RNvXsl_NtNtCs3i3vE8eoeEl_4core3cmp5implstNtB7_9PartialEq2neCslV5kHK6gfBc_17compiler_builtins
  1930: 0000000000000000     0 FILE    LOCAL  DEFAULT  ABS compiler_builtins.ff530eda61515420-cgu.04
  1931: ffff80000008feb0    28 FUNC    LOCAL  HIDDEN     2 memcmp
  1932: ffff80000008fdb0    49 FUNC    LOCAL  HIDDEN     2 _RNvYNCNvNtNtCslV5kHK6gfBc_17compiler_builtins3mem5impls13compare_bytes0INtNtNtCs3i3vE8eoeEl_4core3ops8function6FnOnceTPhB1S_jEE9call_onceBa_
  1933: ffff80000008fdf0    54 FUNC    LOCAL  HIDDEN     2 _RNvYNCNvNtNtCslV5kHK6gfBc_17compiler_builtins3mem5impls13compare_bytess0_0INtNtNtCs3i3vE8eoeEl_4core3ops8function6FnOnceTPmB1V_jEE9call_onceBa_
  1934: ffff80000008fe30    54 FUNC    LOCAL  HIDDEN     2 _RNvYNCNvNtNtCslV5kHK6gfBc_17compiler_builtins3mem5impls13compare_bytess1_0INtNtNtCs3i3vE8eoeEl_4core3ops8function6FnOnceTPyB1V_jEE9call_onceBa_
  1935: ffff80000008fe70    54 FUNC    LOCAL  HIDDEN     2 _RNvYNCNvNtNtCslV5kHK6gfBc_17compiler_builtins3mem5impls13compare_bytess_0INtNtNtCs3i3vE8eoeEl_4core3ops8function6FnOnceTPtB1U_jEE9call_onceBa_
  1936: 0000000000000000     0 FILE    LOCAL  DEFAULT  ABS compiler_builtins.ff530eda61515420-cgu.05
  1937: ffff8000000903a0    84 FUNC    LOCAL  DEFAULT    2 _RNvNvNtCs3i3vE8eoeEl_4core3ptr4read18precondition_checkCslV5kHK6gfBc_17compiler_builtins
  1938: ffff80000008fed0   153 FUNC    LOCAL  HIDDEN     2 _RINvNtCs3i3vE8eoeEl_4core3ptr14read_unalignedmECslV5kHK6gfBc_17compiler_builtins
  1939: ffff8000000902b0   231 FUNC    LOCAL  HIDDEN     2 _RNvNvNtCs3i3vE8eoeEl_4core3ptr19copy_nonoverlapping18precondition_checkCslV5kHK6gfBc_17compiler_builtins
  1940: ffff80000008ff70   165 FUNC    LOCAL  HIDDEN     2 _RINvNtCs3i3vE8eoeEl_4core3ptr14read_unalignedoECslV5kHK6gfBc_17compiler_builtins
  1941: ffff800000090020   158 FUNC    LOCAL  HIDDEN     2 _RINvNtCs3i3vE8eoeEl_4core3ptr14read_unalignedtECslV5kHK6gfBc_17compiler_builtins
  1942: ffff8000000900c0   158 FUNC    LOCAL  HIDDEN     2 _RINvNtCs3i3vE8eoeEl_4core3ptr14read_unalignedyECslV5kHK6gfBc_17compiler_builtins
  1943: ffff800000090160    62 FUNC    LOCAL  HIDDEN     2 _RINvNtCs3i3vE8eoeEl_4core3ptr4readhECslV5kHK6gfBc_17compiler_builtins
  1944: ffff8000000901a0    62 FUNC    LOCAL  HIDDEN     2 _RINvNtCs3i3vE8eoeEl_4core3ptr4readmECslV5kHK6gfBc_17compiler_builtins
  1945: ffff8000000901e0    67 FUNC    LOCAL  HIDDEN     2 _RINvNtCs3i3vE8eoeEl_4core3ptr4readoECslV5kHK6gfBc_17compiler_builtins
  1946: ffff800000090230    63 FUNC    LOCAL  HIDDEN     2 _RINvNtCs3i3vE8eoeEl_4core3ptr4readtECslV5kHK6gfBc_17compiler_builtins
  1947: ffff800000090270    63 FUNC    LOCAL  HIDDEN     2 _RINvNtCs3i3vE8eoeEl_4core3ptr4readyECslV5kHK6gfBc_17compiler_builtins
  1948: ffff800000090400    85 FUNC    LOCAL  HIDDEN     2 _RNvXsF_NtNtCs3i3vE8eoeEl_4core4iter5rangejNtB5_4Step17forward_uncheckedCslV5kHK6gfBc_17compiler_builtins
  1949: 0000000000000000     0 FILE    LOCAL  DEFAULT  ABS compiler_builtins.ff530eda61515420-cgu.06
  1950: 0000000000000000     0 FILE    LOCAL  DEFAULT  ABS compiler_builtins.ff530eda61515420-cgu.07
  1951: 0000000000000000     0 FILE    LOCAL  DEFAULT  ABS compiler_builtins.ff530eda61515420-cgu.08
  1952: ffff8000000904d0   223 FUNC    LOCAL  DEFAULT    2 _RNvMNtNtCs3i3vE8eoeEl_4core3ptr9const_ptrPu13is_aligned_toCslV5kHK6gfBc_17compiler_builtins
  1953: ffff8000000905b0    26 FUNC    LOCAL  DEFAULT    2 _RNvMNtNtCs3i3vE8eoeEl_4core3ptr9const_ptrPu7is_nullCslV5kHK6gfBc_17compiler_builtins
  1954: ffff800000090920    32 FUNC    LOCAL  DEFAULT    2 _RNvNvMNtNtCs3i3vE8eoeEl_4core3ptr9const_ptrPp7is_null7runtimeCslV5kHK6gfBc_17compiler_builtins
  1955: ffff800000090600    65 FUNC    LOCAL  DEFAULT    2 _RNvMs0_NtCs3i3vE8eoeEl_4core3numl12wrapping_absCslV5kHK6gfBc_17compiler_builtins
  1956: ffff800000090650   144 FUNC    LOCAL  DEFAULT    2 _RNvMs9_NtCs3i3vE8eoeEl_4core3numj11checked_mulCslV5kHK6gfBc_17compiler_builtins
  1957: ffff8000000909b0    26 FUNC    LOCAL  DEFAULT    2 _RNvNvNtCs3i3vE8eoeEl_4core9ub_checks16maybe_is_aligned7runtimeCslV5kHK6gfBc_17compiler_builtins
  1958: ffff8000000909d0     5 FUNC    LOCAL  DEFAULT    2 _RNvNvNtCs3i3vE8eoeEl_4core9ub_checks17check_language_ub7runtimeCslV5kHK6gfBc_17compiler_builtins
  1959: ffff8000000909e0   184 FUNC    LOCAL  DEFAULT    2 _RNvNvNtCs3i3vE8eoeEl_4core9ub_checks23maybe_is_nonoverlapping7runtimeCslV5kHK6gfBc_17compiler_builtins
  1960: ffff8000000908e0    61 FUNC    LOCAL  DEFAULT    2 _RNvNvMNtNtCs3i3vE8eoeEl_4core3ptr9const_ptrPp3add18runtime_add_nowrapCslV5kHK6gfBc_17compiler_builtins
  1961: ffff800000090aa0   216 FUNC    LOCAL  DEFAULT    2 _RNvNvNvMNtNtCs3i3vE8eoeEl_4core3ptr9const_ptrPp3add18runtime_add_nowrap7runtimeCslV5kHK6gfBc_17compiler_builtins
  1962: ffff8000000907c0    30 FUNC    LOCAL  HIDDEN     2 _RNvNtCs3i3vE8eoeEl_4core9ub_checks17check_language_ubCslV5kHK6gfBc_17compiler_builtins
  1963: ffff8000000906e0   182 FUNC    LOCAL  HIDDEN     2 _RNvMs9_NtCs3i3vE8eoeEl_4core3numj8abs_diffCslV5kHK6gfBc_17compiler_builtins
  1964: ffff8000000905f0    12 FUNC    LOCAL  HIDDEN     2 _RNvMs0_NtCs3i3vE8eoeEl_4core3numl12unsigned_absCslV5kHK6gfBc_17compiler_builtins
  1965: ffff800000090480    12 FUNC    LOCAL  HIDDEN     2 _RNvMNtNtCs3i3vE8eoeEl_4core3ptr9const_ptrPm4readCslV5kHK6gfBc_17compiler_builtins
  1966: ffff8000000904a0    12 FUNC    LOCAL  HIDDEN     2 _RNvMNtNtCs3i3vE8eoeEl_4core3ptr9const_ptrPo4readCslV5kHK6gfBc_17compiler_builtins
  1967: ffff8000000904c0    12 FUNC    LOCAL  HIDDEN     2 _RNvMNtNtCs3i3vE8eoeEl_4core3ptr9const_ptrPt4readCslV5kHK6gfBc_17compiler_builtins
  1968: ffff8000000905e0    12 FUNC    LOCAL  HIDDEN     2 _RNvMNtNtCs3i3vE8eoeEl_4core3ptr9const_ptrPy4readCslV5kHK6gfBc_17compiler_builtins
  1969: ffff800000090940   101 FUNC    LOCAL  HIDDEN     2 _RNvNvMs9_NtCs3i3vE8eoeEl_4core3numj13unchecked_add18precondition_checkCslV5kHK6gfBc_17compiler_builtins
  1970: ffff8000000907a0    26 FUNC    LOCAL  HIDDEN     2 _RNvNtCs3i3vE8eoeEl_4core9ub_checks16maybe_is_alignedCslV5kHK6gfBc_17compiler_builtins
  1971: ffff800000090830    93 FUNC    LOCAL  HIDDEN     2 _RNvNtCs3i3vE8eoeEl_4core9ub_checks29maybe_is_aligned_and_not_nullCslV5kHK6gfBc_17compiler_builtins
  1972: ffff8000000907e0    76 FUNC    LOCAL  HIDDEN     2 _RNvNtCs3i3vE8eoeEl_4core9ub_checks23maybe_is_nonoverlappingCslV5kHK6gfBc_17compiler_builtins
  1973: ffff800000090460    12 FUNC    LOCAL  HIDDEN     2 _RNvMNtNtCs3i3vE8eoeEl_4core3ptr9const_ptrPh4readCslV5kHK6gfBc_17compiler_builtins
  1974: ffff800000090470    12 FUNC    LOCAL  HIDDEN     2 _RNvMNtNtCs3i3vE8eoeEl_4core3ptr9const_ptrPm14read_unalignedCslV5kHK6gfBc_17compiler_builtins
  1975: ffff800000090490    12 FUNC    LOCAL  HIDDEN     2 _RNvMNtNtCs3i3vE8eoeEl_4core3ptr9const_ptrPo14read_unalignedCslV5kHK6gfBc_17compiler_builtins
  1976: ffff8000000904b0    12 FUNC    LOCAL  HIDDEN     2 _RNvMNtNtCs3i3vE8eoeEl_4core3ptr9const_ptrPt14read_unalignedCslV5kHK6gfBc_17compiler_builtins
  1977: ffff8000000905d0    12 FUNC    LOCAL  HIDDEN     2 _RNvMNtNtCs3i3vE8eoeEl_4core3ptr9const_ptrPy14read_unalignedCslV5kHK6gfBc_17compiler_builtins
  1978: ffff800000090890    72 FUNC    LOCAL  HIDDEN     2 _RNvNvMNtNtCs3i3vE8eoeEl_4core3ptr9const_ptrPp3add18precondition_checkCslV5kHK6gfBc_17compiler_builtins
  1979: 0000000000000000     0 FILE    LOCAL  DEFAULT  ABS compiler_builtins.ff530eda61515420-cgu.09
  1980: ffff8000000911f0   642 FUNC    LOCAL  DEFAULT    2 _RNCNvNtNtCslV5kHK6gfBc_17compiler_builtins3mem5impls13compare_bytess2_0B7_
  1981: ffff8000000916d0    50 FUNC    LOCAL  HIDDEN     2 _RNvMs4_NtCs3i3vE8eoeEl_4core3fmtNtB5_9Arguments8from_strCslV5kHK6gfBc_17compiler_builtins
  1982: ffff800000090b80   392 FUNC    LOCAL  HIDDEN     2 _RNCNvNtNtCslV5kHK6gfBc_17compiler_builtins3mem5impls13compare_bytes0B7_
  1983: ffff800000090d10   624 FUNC    LOCAL  HIDDEN     2 _RNCNvNtNtCslV5kHK6gfBc_17compiler_builtins3mem5impls13compare_bytess0_0B7_
  1984: ffff800000090f80   623 FUNC    LOCAL  HIDDEN     2 _RNCNvNtNtCslV5kHK6gfBc_17compiler_builtins3mem5impls13compare_bytess1_0B7_
  1985: ffff800000091480   589 FUNC    LOCAL  HIDDEN     2 _RNCNvNtNtCslV5kHK6gfBc_17compiler_builtins3mem5impls13compare_bytess_0B7_
  1986: ffff800000091710   138 FUNC    LOCAL  HIDDEN     2 _RNvNtCslV5kHK6gfBc_17compiler_builtins3mem6memcmp
  1987: 0000000000000000     0 FILE    LOCAL  DEFAULT  ABS compiler_builtins.ff530eda61515420-cgu.10
  1988: ffff8000000917c0   124 FUNC    LOCAL  DEFAULT    2 _RNvXs3_NtNtCs3i3vE8eoeEl_4core4iter5rangeINtNtNtB9_3ops5range5RangejENtB5_17RangeIteratorImpl9spec_nextCslV5kHK6gfBc_17compiler_builtins
  1989: ffff8000000917a0    24 FUNC    LOCAL  HIDDEN     2 _RNvXNtNtNtCs3i3vE8eoeEl_4core4iter6traits7collectINtNtNtB8_3ops5range5RangejENtB2_12IntoIterator9into_iterCslV5kHK6gfBc_17compiler_builtins
  1990: ffff800000091840    12 FUNC    LOCAL  HIDDEN     2 _RNvXs4_NtNtCs3i3vE8eoeEl_4core4iter5rangeINtNtNtB9_3ops5range5RangejENtNtNtB7_6traits8iterator8Iterator4nextCslV5kHK6gfBc_17compiler_builtins
  1991: 0000000000000000     0 FILE    LOCAL  DEFAULT  ABS compiler_builtins.ff530eda61515420-cgu.11
  1992: 0000000000000000     0 FILE    LOCAL  DEFAULT  ABS compiler_builtins.ff530eda61515420-cgu.12
  1993: 0000000000000000     0 FILE    LOCAL  DEFAULT  ABS compiler_builtins.ff530eda61515420-cgu.13
  1994: 0000000000000000     0 FILE    LOCAL  DEFAULT  ABS compiler_builtins.ff530eda61515420-cgu.14
  1995: 0000000000000000     0 FILE    LOCAL  DEFAULT  ABS compiler_builtins.ff530eda61515420-cgu.15
  1996: 0000000000000000     0 FILE    LOCAL  DEFAULT  ABS src/asm/memory_impl.asm
  1997: ffff80000009189b     0 NOTYPE  LOCAL  HIDDEN     2 memcpy
  1998: ffff800000091850     0 NOTYPE  LOCAL  HIDDEN     2 memset
  1999: 0000000000000000     0 FILE    LOCAL  DEFAULT  ABS src/asm/x86_64.asm
  2000: 0000000000000000     0 FILE    LOCAL  DEFAULT  ABS src/asm/interrupts_impl.asm
  2001: ffff8000000b1101     8 OBJECT  LOCAL  DEFAULT    7 exhaust
  2002: ffff8000000b1109     8 OBJECT  LOCAL  DEFAULT    7 tmp_isr
  2003: ffff8000000b1111     0 NOTYPE  LOCAL  DEFAULT    7 call_isr_handler
  2004: 0000000000000000     0 FILE    LOCAL  DEFAULT  ABS src/asm/bootstrap.asm
  2005: ffff8000000004c4     8 OBJECT  LOCAL  DEFAULT    1 __tmp_font
  2006: ffff8000000004cc     8 OBJECT  LOCAL  DEFAULT    1 __tmp_rsdp
  2007: ffff8000000004d4     8 OBJECT  LOCAL  DEFAULT    1 __tmp_allocations
  2008: ffff8000000004dc     8 OBJECT  LOCAL  DEFAULT    1 __tmp_kernel_stack
  2009: 0000000000000000     0 FILE    LOCAL  DEFAULT  ABS src/asm/time.asm
  2010: ffff8000000919a8     8 OBJECT  LOCAL  DEFAULT    2 _m_ms_divider
  2011: ffff8000000919d2     0 NOTYPE  LOCAL  DEFAULT    2 sleep0.CMP
  2012: ffff8000000b0230     8 OBJECT  GLOBAL DEFAULT    6 SCANCODE_BUFFER
  2013: ffff8000000b0038   232 OBJECT  GLOBAL DEFAULT    6 USB_KEYBOARD_TRANSLATION_TABLE
  2014: ffff8000000b2000    29 FUNC    GLOBAL DEFAULT    8 _rce_alignment
  2015: ffff8000000b2020    29 FUNC    GLOBAL DEFAULT    8 _rce_bound
  2016: ffff8000000b2040    29 FUNC    GLOBAL DEFAULT    8 _rce_breakpoint
  2017: ffff8000000b2060    29 FUNC    GLOBAL DEFAULT    8 _rce_control_protection
  2018: ffff8000000b2080    29 FUNC    GLOBAL DEFAULT    8 _rce_coprocessor_overrun
  2019: ffff8000000b20a0    29 FUNC    GLOBAL DEFAULT    8 _rce_debug
  2020: ffff8000000b20c0    29 FUNC    GLOBAL DEFAULT    8 _rce_device_not_available
  2021: ffff8000000b20e0    29 FUNC    GLOBAL DEFAULT    8 _rce_divide
  2022: ffff8000000b2100    29 FUNC    GLOBAL DEFAULT    8 _rce_double_fault
  2023: ffff8000000b2120    29 FUNC    GLOBAL DEFAULT    8 _rce_general_protection
  2024: ffff8000000b2140    29 FUNC    GLOBAL DEFAULT    8 _rce_invalid_opcode
  2025: ffff8000000b2160    29 FUNC    GLOBAL DEFAULT    8 _rce_invalid_tss
  2026: ffff8000000b2180    29 FUNC    GLOBAL DEFAULT    8 _rce_machine_check
  2027: ffff8000000b21a0    29 FUNC    GLOBAL DEFAULT    8 _rce_nmi
  2028: ffff8000000b21c0    29 FUNC    GLOBAL DEFAULT    8 _rce_overflow
  2029: ffff8000000b21e0    29 FUNC    GLOBAL DEFAULT    8 _rce_page_fault
  2030: ffff8000000b2200    29 FUNC    GLOBAL DEFAULT    8 _rce_segment_not_present
  2031: ffff8000000b2220    29 FUNC    GLOBAL DEFAULT    8 _rce_simd_floating
  2032: ffff8000000b2240    29 FUNC    GLOBAL DEFAULT    8 _rce_stack_segment
  2033: ffff8000000b2260    29 FUNC    GLOBAL DEFAULT    8 _rce_virtualization
  2034: ffff8000000b2280    29 FUNC    GLOBAL DEFAULT    8 _rce_x87_floating
  2035: ffff8000000b5000   585 FUNC    GLOBAL DEFAULT   11 ap_function
  2036: ffff8000000152c0   165 FUNC    GLOBAL DEFAULT    2 counter_increment
  2037: ffff800000027fd0  1119 FUNC    GLOBAL DEFAULT    2 gopcharput
  2038: ffff800000028430   683 FUNC    GLOBAL DEFAULT    2 gopstrput
  2039: ffff80000003d450  2028 FUNC    GLOBAL DEFAULT    2 hal_init
  2040: ffff800000000000  1220 FUNC    GLOBAL DEFAULT    1 kentry
  2041: ffff800000033d70  1374 FUNC    GLOBAL DEFAULT    2 kernel_ipi_dst
  2042: ffff8000000286e0   649 FUNC    GLOBAL DEFAULT    2 print_init
  2043: ffff8000000b1000   257 FUNC    GLOBAL DEFAULT    7 raw_call
  2044: ffff800000086070    21 FUNC    GLOBAL DEFAULT    2 _RNvNtCs3i3vE8eoeEl_4core6option13unwrap_failed
  2045: ffff80000008d393   142 FUNC    GLOBAL DEFAULT    2 _RNvNtCs3i3vE8eoeEl_4core9panicking36panic_misaligned_pointer_dereference
  2046: ffff80000008d36c    39 FUNC    GLOBAL DEFAULT    2 _RNvNtCs3i3vE8eoeEl_4core9panicking30panic_null_pointer_dereference
  2047: ffff8000000861b0    37 FUNC    GLOBAL DEFAULT    2 _RNvNtNtCs3i3vE8eoeEl_4core9panicking11panic_const24panic_const_sub_overflow
  2048: ffff800000086150    37 FUNC    GLOBAL DEFAULT    2 _RNvNtNtCs3i3vE8eoeEl_4core9panicking11panic_const24panic_const_shl_overflow
  2049: ffff800000086120    37 FUNC    GLOBAL DEFAULT    2 _RNvNtNtCs3i3vE8eoeEl_4core9panicking11panic_const24panic_const_mul_overflow
  2050: ffff800000086090    37 FUNC    GLOBAL DEFAULT    2 _RNvNtNtCs3i3vE8eoeEl_4core9panicking11panic_const23panic_const_div_by_zero
  2051: ffff8000000860f0    37 FUNC    GLOBAL DEFAULT    2 _RNvNtNtCs3i3vE8eoeEl_4core9panicking11panic_const24panic_const_add_overflow
  2052: ffff8000000802e0    86 FUNC    GLOBAL DEFAULT    2 _RINvNtNtCs3i3vE8eoeEl_4core5slice3raw14from_raw_partshEB6_
  2053: ffff80000008d430    38 FUNC    GLOBAL DEFAULT    2 _RNvNtCs3i3vE8eoeEl_4core9panicking5panic
  2054: ffff80000007c540    24 FUNC    GLOBAL DEFAULT    2 _RNvXNtNtNtCs3i3vE8eoeEl_4core4iter6traits7collectINtNtNtB8_3ops5range5RangejENtB2_12IntoIterator9into_iterB8_
  2055: ffff80000008cf87   140 FUNC    GLOBAL DEFAULT    2 _RNvNtCs3i3vE8eoeEl_4core9panicking18panic_bounds_check
  2056: ffff80000007cb70    12 FUNC    GLOBAL DEFAULT    2 _RNvXs4_NtNtCs3i3vE8eoeEl_4core4iter5rangeINtNtNtB9_3ops5range5RangejENtNtNtB7_6traits8iterator8Iterator4nextB9_
  2057: ffff8000000918cf     0 NOTYPE  GLOBAL DEFAULT    2 load_idt
  2058: ffff80000008e420   107 FUNC    GLOBAL DEFAULT    2 _RINvMNtNtCs3i3vE8eoeEl_4core3fmt2rtNtB3_8Argument11new_displayhEB7_
  2059: ffff8000000b229d     0 NOTYPE  GLOBAL DEFAULT    8 rce_divide
  2060: ffff8000000b22c1     0 NOTYPE  GLOBAL DEFAULT    8 rce_debug
  2061: ffff8000000b22e5     0 NOTYPE  GLOBAL DEFAULT    8 rce_nmi
  2062: ffff8000000b2309     0 NOTYPE  GLOBAL DEFAULT    8 rce_breakpoint
  2063: ffff8000000b232d     0 NOTYPE  GLOBAL DEFAULT    8 rce_overflow
  2064: ffff8000000b2351     0 NOTYPE  GLOBAL DEFAULT    8 rce_bound
  2065: ffff8000000b2375     0 NOTYPE  GLOBAL DEFAULT    8 rce_invalid_opcode
  2066: ffff8000000b2399     0 NOTYPE  GLOBAL DEFAULT    8 rce_device_not_available
  2067: ffff8000000b23bd     0 NOTYPE  GLOBAL DEFAULT    8 rce_double_fault
  2068: ffff8000000b23df     0 NOTYPE  GLOBAL DEFAULT    8 rce_coprocessor_overrun
  2069: ffff8000000b2403     0 NOTYPE  GLOBAL DEFAULT    8 rce_invalid_tss
  2070: ffff8000000b2425     0 NOTYPE  GLOBAL DEFAULT    8 rce_segment_not_present
  2071: ffff8000000b2447     0 NOTYPE  GLOBAL DEFAULT    8 rce_stack_segment
  2072: ffff8000000b2469     0 NOTYPE  GLOBAL DEFAULT    8 rce_general_protection
  2073: ffff8000000b248b     0 NOTYPE  GLOBAL DEFAULT    8 rce_page_fault
  2074: ffff8000000b24ad     0 NOTYPE  GLOBAL DEFAULT    8 rce_x87_floating
  2075: ffff8000000b24d1     0 NOTYPE  GLOBAL DEFAULT    8 rce_alignment
  2076: ffff8000000b24f3     0 NOTYPE  GLOBAL DEFAULT    8 rce_machine_check
  2077: ffff8000000b2517     0 NOTYPE  GLOBAL DEFAULT    8 rce_simd_floating
  2078: ffff8000000b253b     0 NOTYPE  GLOBAL DEFAULT    8 rce_virtualization
  2079: ffff8000000b255f     0 NOTYPE  GLOBAL DEFAULT    8 rce_control_protection
  2080: ffff8000000b115b     0 NOTYPE  GLOBAL DEFAULT    7 isr32
  2081: ffff8000000b1168     0 NOTYPE  GLOBAL DEFAULT    7 isr33
  2082: ffff8000000b1175     0 NOTYPE  GLOBAL DEFAULT    7 isr34
  2083: ffff8000000b1182     0 NOTYPE  GLOBAL DEFAULT    7 isr35
  2084: ffff8000000b118f     0 NOTYPE  GLOBAL DEFAULT    7 isr36
  2085: ffff8000000b119f     0 NOTYPE  GLOBAL DEFAULT    7 isr37
  2086: ffff8000000b11af     0 NOTYPE  GLOBAL DEFAULT    7 isr38
  2087: ffff8000000b11bf     0 NOTYPE  GLOBAL DEFAULT    7 isr39
  2088: ffff8000000b11cf     0 NOTYPE  GLOBAL DEFAULT    7 isr40
  2089: ffff8000000b11df     0 NOTYPE  GLOBAL DEFAULT    7 isr41
  2090: ffff8000000b11ef     0 NOTYPE  GLOBAL DEFAULT    7 isr42
  2091: ffff8000000b11ff     0 NOTYPE  GLOBAL DEFAULT    7 isr43
  2092: ffff8000000b120f     0 NOTYPE  GLOBAL DEFAULT    7 isr44
  2093: ffff8000000b121f     0 NOTYPE  GLOBAL DEFAULT    7 isr45
  2094: ffff8000000b122f     0 NOTYPE  GLOBAL DEFAULT    7 isr46
  2095: ffff8000000b123f     0 NOTYPE  GLOBAL DEFAULT    7 isr47
  2096: ffff8000000b124f     0 NOTYPE  GLOBAL DEFAULT    7 isr48
  2097: ffff8000000b125f     0 NOTYPE  GLOBAL DEFAULT    7 isr49
  2098: ffff8000000b126f     0 NOTYPE  GLOBAL DEFAULT    7 isr50
  2099: ffff8000000b127f     0 NOTYPE  GLOBAL DEFAULT    7 isr51
  2100: ffff8000000b128f     0 NOTYPE  GLOBAL DEFAULT    7 isr52
  2101: ffff8000000b129f     0 NOTYPE  GLOBAL DEFAULT    7 isr53
  2102: ffff8000000b12af     0 NOTYPE  GLOBAL DEFAULT    7 isr54
  2103: ffff8000000b12bf     0 NOTYPE  GLOBAL DEFAULT    7 isr55
  2104: ffff8000000b12cf     0 NOTYPE  GLOBAL DEFAULT    7 isr56
  2105: ffff8000000b12df     0 NOTYPE  GLOBAL DEFAULT    7 isr57
  2106: ffff8000000b12ef     0 NOTYPE  GLOBAL DEFAULT    7 isr58
  2107: ffff8000000b12ff     0 NOTYPE  GLOBAL DEFAULT    7 isr59
  2108: ffff8000000b130f     0 NOTYPE  GLOBAL DEFAULT    7 isr60
  2109: ffff8000000b131f     0 NOTYPE  GLOBAL DEFAULT    7 isr61
  2110: ffff8000000b132f     0 NOTYPE  GLOBAL DEFAULT    7 isr62
  2111: ffff8000000b133f     0 NOTYPE  GLOBAL DEFAULT    7 isr63
  2112: ffff8000000b134f     0 NOTYPE  GLOBAL DEFAULT    7 isr64
  2113: ffff8000000b135f     0 NOTYPE  GLOBAL DEFAULT    7 isr65
  2114: ffff8000000b136f     0 NOTYPE  GLOBAL DEFAULT    7 isr66
  2115: ffff8000000b137f     0 NOTYPE  GLOBAL DEFAULT    7 isr67
  2116: ffff8000000b138f     0 NOTYPE  GLOBAL DEFAULT    7 isr68
  2117: ffff8000000b139f     0 NOTYPE  GLOBAL DEFAULT    7 isr69
  2118: ffff8000000b13af     0 NOTYPE  GLOBAL DEFAULT    7 isr70
  2119: ffff8000000b13bf     0 NOTYPE  GLOBAL DEFAULT    7 isr71
  2120: ffff8000000b13cf     0 NOTYPE  GLOBAL DEFAULT    7 isr72
  2121: ffff8000000b13df     0 NOTYPE  GLOBAL DEFAULT    7 isr73
  2122: ffff8000000b13ef     0 NOTYPE  GLOBAL DEFAULT    7 isr74
  2123: ffff8000000b13ff     0 NOTYPE  GLOBAL DEFAULT    7 isr75
  2124: ffff8000000b140f     0 NOTYPE  GLOBAL DEFAULT    7 isr76
  2125: ffff8000000b141f     0 NOTYPE  GLOBAL DEFAULT    7 isr77
  2126: ffff8000000b142f     0 NOTYPE  GLOBAL DEFAULT    7 isr78
  2127: ffff8000000b143f     0 NOTYPE  GLOBAL DEFAULT    7 isr79
  2128: ffff8000000b144f     0 NOTYPE  GLOBAL DEFAULT    7 isr80
  2129: ffff8000000b145f     0 NOTYPE  GLOBAL DEFAULT    7 isr81
  2130: ffff8000000b146f     0 NOTYPE  GLOBAL DEFAULT    7 isr82
  2131: ffff8000000b147f     0 NOTYPE  GLOBAL DEFAULT    7 isr83
  2132: ffff8000000b148f     0 NOTYPE  GLOBAL DEFAULT    7 isr84
  2133: ffff8000000b149f     0 NOTYPE  GLOBAL DEFAULT    7 isr85
  2134: ffff8000000b14af     0 NOTYPE  GLOBAL DEFAULT    7 isr86
  2135: ffff8000000b14bf     0 NOTYPE  GLOBAL DEFAULT    7 isr87
  2136: ffff8000000b14cf     0 NOTYPE  GLOBAL DEFAULT    7 isr88
  2137: ffff8000000b14df     0 NOTYPE  GLOBAL DEFAULT    7 isr89
  2138: ffff8000000b14ef     0 NOTYPE  GLOBAL DEFAULT    7 isr90
  2139: ffff8000000b14ff     0 NOTYPE  GLOBAL DEFAULT    7 isr91
  2140: ffff8000000b150f     0 NOTYPE  GLOBAL DEFAULT    7 isr92
  2141: ffff8000000b151f     0 NOTYPE  GLOBAL DEFAULT    7 isr93
  2142: ffff8000000b152f     0 NOTYPE  GLOBAL DEFAULT    7 isr94
  2143: ffff8000000b153f     0 NOTYPE  GLOBAL DEFAULT    7 isr95
  2144: ffff8000000b154f     0 NOTYPE  GLOBAL DEFAULT    7 isr96
  2145: ffff8000000b155f     0 NOTYPE  GLOBAL DEFAULT    7 isr97
  2146: ffff8000000b156f     0 NOTYPE  GLOBAL DEFAULT    7 isr98
  2147: ffff8000000b157f     0 NOTYPE  GLOBAL DEFAULT    7 isr99
  2148: ffff8000000b158f     0 NOTYPE  GLOBAL DEFAULT    7 isr100
  2149: ffff8000000b159f     0 NOTYPE  GLOBAL DEFAULT    7 isr101
  2150: ffff8000000b15af     0 NOTYPE  GLOBAL DEFAULT    7 isr102
  2151: ffff8000000b15bf     0 NOTYPE  GLOBAL DEFAULT    7 isr103
  2152: ffff8000000b15cf     0 NOTYPE  GLOBAL DEFAULT    7 isr104
  2153: ffff8000000b15df     0 NOTYPE  GLOBAL DEFAULT    7 isr105
  2154: ffff8000000b15ef     0 NOTYPE  GLOBAL DEFAULT    7 isr106
  2155: ffff8000000b15ff     0 NOTYPE  GLOBAL DEFAULT    7 isr107
  2156: ffff8000000b160f     0 NOTYPE  GLOBAL DEFAULT    7 isr108
  2157: ffff8000000b161f     0 NOTYPE  GLOBAL DEFAULT    7 isr109
  2158: ffff8000000b162f     0 NOTYPE  GLOBAL DEFAULT    7 isr110
  2159: ffff8000000b163f     0 NOTYPE  GLOBAL DEFAULT    7 isr111
  2160: ffff8000000b164f     0 NOTYPE  GLOBAL DEFAULT    7 isr112
  2161: ffff8000000b165f     0 NOTYPE  GLOBAL DEFAULT    7 isr113
  2162: ffff8000000b166f     0 NOTYPE  GLOBAL DEFAULT    7 isr114
  2163: ffff8000000b167f     0 NOTYPE  GLOBAL DEFAULT    7 isr115
  2164: ffff8000000b168f     0 NOTYPE  GLOBAL DEFAULT    7 isr116
  2165: ffff8000000b169f     0 NOTYPE  GLOBAL DEFAULT    7 isr117
  2166: ffff8000000b16af     0 NOTYPE  GLOBAL DEFAULT    7 isr118
  2167: ffff8000000b16bf     0 NOTYPE  GLOBAL DEFAULT    7 isr119
  2168: ffff8000000b16cf     0 NOTYPE  GLOBAL DEFAULT    7 isr120
  2169: ffff8000000b16df     0 NOTYPE  GLOBAL DEFAULT    7 isr121
  2170: ffff8000000b16ef     0 NOTYPE  GLOBAL DEFAULT    7 isr122
  2171: ffff8000000b16ff     0 NOTYPE  GLOBAL DEFAULT    7 isr123
  2172: ffff8000000b170f     0 NOTYPE  GLOBAL DEFAULT    7 isr124
  2173: ffff8000000b171f     0 NOTYPE  GLOBAL DEFAULT    7 isr125
  2174: ffff8000000b172f     0 NOTYPE  GLOBAL DEFAULT    7 isr126
  2175: ffff8000000b173f     0 NOTYPE  GLOBAL DEFAULT    7 isr127
  2176: ffff8000000b174f     0 NOTYPE  GLOBAL DEFAULT    7 isr128
  2177: ffff8000000b175f     0 NOTYPE  GLOBAL DEFAULT    7 isr129
  2178: ffff8000000b176f     0 NOTYPE  GLOBAL DEFAULT    7 isr130
  2179: ffff8000000b177f     0 NOTYPE  GLOBAL DEFAULT    7 isr131
  2180: ffff8000000b178f     0 NOTYPE  GLOBAL DEFAULT    7 isr132
  2181: ffff8000000b179f     0 NOTYPE  GLOBAL DEFAULT    7 isr133
  2182: ffff8000000b17af     0 NOTYPE  GLOBAL DEFAULT    7 isr134
  2183: ffff8000000b17bf     0 NOTYPE  GLOBAL DEFAULT    7 isr135
  2184: ffff8000000b17cf     0 NOTYPE  GLOBAL DEFAULT    7 isr136
  2185: ffff8000000b17df     0 NOTYPE  GLOBAL DEFAULT    7 isr137
  2186: ffff8000000b17ef     0 NOTYPE  GLOBAL DEFAULT    7 isr138
  2187: ffff8000000b17ff     0 NOTYPE  GLOBAL DEFAULT    7 isr139
  2188: ffff8000000b180f     0 NOTYPE  GLOBAL DEFAULT    7 isr140
  2189: ffff8000000b181f     0 NOTYPE  GLOBAL DEFAULT    7 isr141
  2190: ffff8000000b182f     0 NOTYPE  GLOBAL DEFAULT    7 isr142
  2191: ffff8000000b183f     0 NOTYPE  GLOBAL DEFAULT    7 isr143
  2192: ffff8000000b184f     0 NOTYPE  GLOBAL DEFAULT    7 isr144
  2193: ffff8000000b185f     0 NOTYPE  GLOBAL DEFAULT    7 isr145
  2194: ffff8000000b186f     0 NOTYPE  GLOBAL DEFAULT    7 isr146
  2195: ffff8000000b187f     0 NOTYPE  GLOBAL DEFAULT    7 isr147
  2196: ffff8000000b188f     0 NOTYPE  GLOBAL DEFAULT    7 isr148
  2197: ffff8000000b189f     0 NOTYPE  GLOBAL DEFAULT    7 isr149
  2198: ffff8000000b18af     0 NOTYPE  GLOBAL DEFAULT    7 isr150
  2199: ffff8000000b18bf     0 NOTYPE  GLOBAL DEFAULT    7 isr151
  2200: ffff8000000b18cf     0 NOTYPE  GLOBAL DEFAULT    7 isr152
  2201: ffff8000000b18df     0 NOTYPE  GLOBAL DEFAULT    7 isr153
  2202: ffff8000000b18ef     0 NOTYPE  GLOBAL DEFAULT    7 isr154
  2203: ffff8000000b18ff     0 NOTYPE  GLOBAL DEFAULT    7 isr155
  2204: ffff8000000b190f     0 NOTYPE  GLOBAL DEFAULT    7 isr156
  2205: ffff8000000b191f     0 NOTYPE  GLOBAL DEFAULT    7 isr157
  2206: ffff8000000b192f     0 NOTYPE  GLOBAL DEFAULT    7 isr158
  2207: ffff8000000b193f     0 NOTYPE  GLOBAL DEFAULT    7 isr159
  2208: ffff8000000b194f     0 NOTYPE  GLOBAL DEFAULT    7 isr160
  2209: ffff8000000b195f     0 NOTYPE  GLOBAL DEFAULT    7 isr161
  2210: ffff8000000b196f     0 NOTYPE  GLOBAL DEFAULT    7 isr162
  2211: ffff8000000b197f     0 NOTYPE  GLOBAL DEFAULT    7 isr163
  2212: ffff8000000b198f     0 NOTYPE  GLOBAL DEFAULT    7 isr164
  2213: ffff8000000b199f     0 NOTYPE  GLOBAL DEFAULT    7 isr165
  2214: ffff8000000b19af     0 NOTYPE  GLOBAL DEFAULT    7 isr166
  2215: ffff8000000b19bf     0 NOTYPE  GLOBAL DEFAULT    7 isr167
  2216: ffff8000000b19cf     0 NOTYPE  GLOBAL DEFAULT    7 isr168
  2217: ffff8000000b19df     0 NOTYPE  GLOBAL DEFAULT    7 isr169
  2218: ffff8000000b19ef     0 NOTYPE  GLOBAL DEFAULT    7 isr170
  2219: ffff8000000b19ff     0 NOTYPE  GLOBAL DEFAULT    7 isr171
  2220: ffff8000000b1a0f     0 NOTYPE  GLOBAL DEFAULT    7 isr172
  2221: ffff8000000b1a1f     0 NOTYPE  GLOBAL DEFAULT    7 isr173
  2222: ffff8000000b1a2f     0 NOTYPE  GLOBAL DEFAULT    7 isr174
  2223: ffff8000000b1a3f     0 NOTYPE  GLOBAL DEFAULT    7 isr175
  2224: ffff8000000b1a4f     0 NOTYPE  GLOBAL DEFAULT    7 isr176
  2225: ffff8000000b1a5f     0 NOTYPE  GLOBAL DEFAULT    7 isr177
  2226: ffff8000000b1a6f     0 NOTYPE  GLOBAL DEFAULT    7 isr178
  2227: ffff8000000b1a7f     0 NOTYPE  GLOBAL DEFAULT    7 isr179
  2228: ffff8000000b1a8f     0 NOTYPE  GLOBAL DEFAULT    7 isr180
  2229: ffff8000000b1a9f     0 NOTYPE  GLOBAL DEFAULT    7 isr181
  2230: ffff8000000b1aaf     0 NOTYPE  GLOBAL DEFAULT    7 isr182
  2231: ffff8000000b1abf     0 NOTYPE  GLOBAL DEFAULT    7 isr183
  2232: ffff8000000b1acf     0 NOTYPE  GLOBAL DEFAULT    7 isr184
  2233: ffff8000000b1adf     0 NOTYPE  GLOBAL DEFAULT    7 isr185
  2234: ffff8000000b1aef     0 NOTYPE  GLOBAL DEFAULT    7 isr186
  2235: ffff8000000b1aff     0 NOTYPE  GLOBAL DEFAULT    7 isr187
  2236: ffff8000000b1b0f     0 NOTYPE  GLOBAL DEFAULT    7 isr188
  2237: ffff8000000b1b1f     0 NOTYPE  GLOBAL DEFAULT    7 isr189
  2238: ffff8000000b1b2f     0 NOTYPE  GLOBAL DEFAULT    7 isr190
  2239: ffff8000000b1b3f     0 NOTYPE  GLOBAL DEFAULT    7 isr191
  2240: ffff8000000b1b4f     0 NOTYPE  GLOBAL DEFAULT    7 isr192
  2241: ffff8000000b1b5f     0 NOTYPE  GLOBAL DEFAULT    7 isr193
  2242: ffff8000000b1b6f     0 NOTYPE  GLOBAL DEFAULT    7 isr194
  2243: ffff8000000b1b7f     0 NOTYPE  GLOBAL DEFAULT    7 isr195
  2244: ffff8000000b1b8f     0 NOTYPE  GLOBAL DEFAULT    7 isr196
  2245: ffff8000000b1b9f     0 NOTYPE  GLOBAL DEFAULT    7 isr197
  2246: ffff8000000b1baf     0 NOTYPE  GLOBAL DEFAULT    7 isr198
  2247: ffff8000000b1bbf     0 NOTYPE  GLOBAL DEFAULT    7 isr199
  2248: ffff8000000b1bcf     0 NOTYPE  GLOBAL DEFAULT    7 isr200
  2249: ffff8000000b1bdf     0 NOTYPE  GLOBAL DEFAULT    7 isr201
  2250: ffff8000000b1bef     0 NOTYPE  GLOBAL DEFAULT    7 isr202
  2251: ffff8000000b1bff     0 NOTYPE  GLOBAL DEFAULT    7 isr203
  2252: ffff8000000b1c0f     0 NOTYPE  GLOBAL DEFAULT    7 isr204
  2253: ffff8000000b1c1f     0 NOTYPE  GLOBAL DEFAULT    7 isr205
  2254: ffff8000000b1c2f     0 NOTYPE  GLOBAL DEFAULT    7 isr206
  2255: ffff8000000b1c3f     0 NOTYPE  GLOBAL DEFAULT    7 isr207
  2256: ffff8000000b1c4f     0 NOTYPE  GLOBAL DEFAULT    7 isr208
  2257: ffff8000000b1c5f     0 NOTYPE  GLOBAL DEFAULT    7 isr209
  2258: ffff8000000b1c6f     0 NOTYPE  GLOBAL DEFAULT    7 isr210
  2259: ffff8000000b1c7f     0 NOTYPE  GLOBAL DEFAULT    7 isr211
  2260: ffff8000000b1c8f     0 NOTYPE  GLOBAL DEFAULT    7 isr212
  2261: ffff8000000b1c9f     0 NOTYPE  GLOBAL DEFAULT    7 isr213
  2262: ffff8000000b1caf     0 NOTYPE  GLOBAL DEFAULT    7 isr214
  2263: ffff8000000b1cbf     0 NOTYPE  GLOBAL DEFAULT    7 isr215
  2264: ffff8000000b1ccf     0 NOTYPE  GLOBAL DEFAULT    7 isr216
  2265: ffff8000000b1cdf     0 NOTYPE  GLOBAL DEFAULT    7 isr217
  2266: ffff8000000b1cef     0 NOTYPE  GLOBAL DEFAULT    7 isr218
  2267: ffff8000000b1cff     0 NOTYPE  GLOBAL DEFAULT    7 isr219
  2268: ffff8000000b1d0f     0 NOTYPE  GLOBAL DEFAULT    7 isr220
  2269: ffff8000000b1d1f     0 NOTYPE  GLOBAL DEFAULT    7 isr221
  2270: ffff8000000b1d2f     0 NOTYPE  GLOBAL DEFAULT    7 isr222
  2271: ffff8000000b1d3f     0 NOTYPE  GLOBAL DEFAULT    7 isr223
  2272: ffff8000000b1d4f     0 NOTYPE  GLOBAL DEFAULT    7 isr224
  2273: ffff8000000b1d5f     0 NOTYPE  GLOBAL DEFAULT    7 isr225
  2274: ffff8000000b1d6f     0 NOTYPE  GLOBAL DEFAULT    7 isr226
  2275: ffff8000000b1d7f     0 NOTYPE  GLOBAL DEFAULT    7 isr227
  2276: ffff8000000b1d8f     0 NOTYPE  GLOBAL DEFAULT    7 isr228
  2277: ffff8000000b1d9f     0 NOTYPE  GLOBAL DEFAULT    7 isr229
  2278: ffff8000000b1daf     0 NOTYPE  GLOBAL DEFAULT    7 isr230
  2279: ffff8000000b1dbf     0 NOTYPE  GLOBAL DEFAULT    7 isr231
  2280: ffff8000000b1dcf     0 NOTYPE  GLOBAL DEFAULT    7 isr232
  2281: ffff8000000b1ddf     0 NOTYPE  GLOBAL DEFAULT    7 isr233
  2282: ffff8000000b1def     0 NOTYPE  GLOBAL DEFAULT    7 isr234
  2283: ffff8000000b1dff     0 NOTYPE  GLOBAL DEFAULT    7 isr235
  2284: ffff8000000b1e0f     0 NOTYPE  GLOBAL DEFAULT    7 isr236
  2285: ffff8000000b1e1f     0 NOTYPE  GLOBAL DEFAULT    7 isr237
  2286: ffff8000000b1e2f     0 NOTYPE  GLOBAL DEFAULT    7 isr238
  2287: ffff8000000b1e3f     0 NOTYPE  GLOBAL DEFAULT    7 isr239
  2288: ffff8000000b1e4f     0 NOTYPE  GLOBAL DEFAULT    7 isr240
  2289: ffff8000000b1e5f     0 NOTYPE  GLOBAL DEFAULT    7 isr241
  2290: ffff8000000b1e6f     0 NOTYPE  GLOBAL DEFAULT    7 isr242
  2291: ffff8000000b1e7f     0 NOTYPE  GLOBAL DEFAULT    7 isr243
  2292: ffff8000000b1e8f     0 NOTYPE  GLOBAL DEFAULT    7 isr244
  2293: ffff8000000b1e9f     0 NOTYPE  GLOBAL DEFAULT    7 isr245
  2294: ffff8000000b1eaf     0 NOTYPE  GLOBAL DEFAULT    7 isr246
  2295: ffff8000000b1ebf     0 NOTYPE  GLOBAL DEFAULT    7 isr247
  2296: ffff8000000b1ecf     0 NOTYPE  GLOBAL DEFAULT    7 isr248
  2297: ffff8000000b1edf     0 NOTYPE  GLOBAL DEFAULT    7 isr249
  2298: ffff8000000b1eef     0 NOTYPE  GLOBAL DEFAULT    7 isr250
  2299: ffff8000000b1eff     0 NOTYPE  GLOBAL DEFAULT    7 isr251
  2300: ffff8000000b1f0f     0 NOTYPE  GLOBAL DEFAULT    7 isr252
  2301: ffff8000000b1f1f     0 NOTYPE  GLOBAL DEFAULT    7 isr253
  2302: ffff8000000b1f2f     0 NOTYPE  GLOBAL DEFAULT    7 isr254
  2303: ffff8000000b1f3f     0 NOTYPE  GLOBAL DEFAULT    7 isr255
  2304: ffff80000008b850   150 FUNC    GLOBAL DEFAULT    2 _RNvNtCs3i3vE8eoeEl_4core6result13unwrap_failed
  2305: ffff800000083790    67 FUNC    GLOBAL DEFAULT    2 _RINvMNtCs3i3vE8eoeEl_4core3stre13get_uncheckedINtNtNtB5_3ops5range5RangejEEB5_
  2306: ffff80000007e1f0   175 FUNC    GLOBAL DEFAULT    2 _RNvMsf_NtNtCs3i3vE8eoeEl_4core3str4iterINtB5_13SplitInternalcE7get_endB9_
  2307: ffff80000007cb60    12 FUNC    GLOBAL DEFAULT    2 _RNvXs4_NtNtCs3i3vE8eoeEl_4core4iter5rangeINtNtNtB9_3ops5range5RangehENtNtNtB7_6traits8iterator8Iterator4nextB9_
  2308: ffff800000086060    10 FUNC    GLOBAL DEFAULT    2 _RNvMs1_NtNtCs3i3vE8eoeEl_4core3ptr8non_nullINtB5_7NonNullyE8from_refB9_
  2309: ffff800000085a40    21 FUNC    GLOBAL DEFAULT    2 _RINvMs1_NtNtCs3i3vE8eoeEl_4core3ptr8non_nullINtB6_7NonNullyE4castuEBa_
  2310: ffff80000007f250   458 FUNC    GLOBAL DEFAULT    2 _RNvXsC_NtNtCs3i3vE8eoeEl_4core3fmt3numyNtB7_8LowerHex3fmt
  2311: ffff80000008d460    68 FUNC    GLOBAL DEFAULT    2 _RNvNtCs3i3vE8eoeEl_4core9panicking9panic_fmt
  2312: ffff800000080590    12 FUNC    GLOBAL DEFAULT    2 _RNvMNtNtCs3i3vE8eoeEl_4core3ptr9const_ptrPh4readB6_
  2313: ffff8000000919b0     0 NOTYPE  GLOBAL DEFAULT    2 sleep0
  2314: ffff80000008e5e0   107 FUNC    GLOBAL DEFAULT    2 _RINvMNtNtCs3i3vE8eoeEl_4core3fmt2rtNtB3_8Argument11new_displayyEB7_
  2315: ffff800000081340    24 FUNC    GLOBAL DEFAULT    2 _RINvMs2_NtCs3i3vE8eoeEl_4core3fmtNtB6_9Arguments3newKj1d_Kj1_EB8_
  2316: ffff80000008e730   107 FUNC    GLOBAL DEFAULT    2 _RINvMNtNtCs3i3vE8eoeEl_4core3fmt2rtNtB3_8Argument13new_lower_hexmEB7_
  2317: ffff80000008e500   107 FUNC    GLOBAL DEFAULT    2 _RINvMNtNtCs3i3vE8eoeEl_4core3fmt2rtNtB3_8Argument11new_displaymEB7_
  2318: ffff8000000813e0    24 FUNC    GLOBAL DEFAULT    2 _RINvMs2_NtCs3i3vE8eoeEl_4core3fmtNtB6_9Arguments3newKj2d_Kj3_EB8_
  2319: ffff8000000860c0    37 FUNC    GLOBAL DEFAULT    2 _RNvNtNtCs3i3vE8eoeEl_4core9panicking11panic_const23panic_const_rem_by_zero
  2320: ffff800000083e50    11 FUNC    GLOBAL DEFAULT    2 _RNvMNtNtCs3i3vE8eoeEl_4core5panic10panic_infoNtB2_9PanicInfo8location
  2321: ffff800000083e40    10 FUNC    GLOBAL DEFAULT    2 _RNvMNtNtCs3i3vE8eoeEl_4core5panic10panic_infoNtB2_9PanicInfo7message
  2322: ffff800000081320    24 FUNC    GLOBAL DEFAULT    2 _RINvMs2_NtCs3i3vE8eoeEl_4core3fmtNtB6_9Arguments3newKj17_Kj1_EB8_
  2323: ffff80000007dcc0    45 FUNC    GLOBAL DEFAULT    2 _RNvMs4_NtNtCs3i3vE8eoeEl_4core5panic8locationNtB5_8Location4file
  2324: ffff80000008e340   107 FUNC    GLOBAL DEFAULT    2 _RINvMNtNtCs3i3vE8eoeEl_4core3fmt2rtNtB3_8Argument11new_displayReEB7_
  2325: ffff8000000919a0     0 NOTYPE  GLOBAL DEFAULT    2 m_Counter
  2326: ffff800000086180    37 FUNC    GLOBAL DEFAULT    2 _RNvNtNtCs3i3vE8eoeEl_4core9panicking11panic_const24panic_const_shr_overflow
  2327: ffff8000000806b0    26 FUNC    GLOBAL DEFAULT    2 _RNvMNtNtCs3i3vE8eoeEl_4core3ptr9const_ptrPu7is_nullB6_
  2328: ffff8000000805b0   249 FUNC    GLOBAL DEFAULT    2 _RNvMNtNtCs3i3vE8eoeEl_4core3ptr9const_ptrPu13is_aligned_toB6_
  2329: ffff80000008cf60    39 FUNC    GLOBAL DEFAULT    2 _RNvNtCs3i3vE8eoeEl_4core9panicking14panic_nounwind
  2330: ffff8000000918d3     0 NOTYPE  GLOBAL DEFAULT    2 get_cr3
  2331: ffff80000009187e     0 NOTYPE  GLOBAL DEFAULT    2 memset_qword
  2332: ffff80000007c560    24 FUNC    GLOBAL DEFAULT    2 _RNvXNtNtNtCs3i3vE8eoeEl_4core4iter6traits7collectINtNtNtB8_3ops5range5RangetENtB2_12IntoIterator9into_iterB8_
  2333: ffff80000007cb80    12 FUNC    GLOBAL DEFAULT    2 _RNvXs4_NtNtCs3i3vE8eoeEl_4core4iter5rangeINtNtNtB9_3ops5range5RangetENtNtNtB7_6traits8iterator8Iterator4nextB9_
  2334: ffff8000000809a0    26 FUNC    GLOBAL DEFAULT    2 _RNvNvMNtNtCs3i3vE8eoeEl_4core3ptr9const_ptrPp20offset_from_unsigned14runtime_ptr_ge
  2335: ffff80000008d020    65 FUNC    GLOBAL DEFAULT    2 _RNvNtCs3i3vE8eoeEl_4core9panicking18panic_nounwind_fmt
  2336: ffff80000009186f     0 NOTYPE  GLOBAL DEFAULT    2 memset_dword
  2337: ffff800000083410    12 FUNC    GLOBAL DEFAULT    2 _RNvXs4_NtCs3i3vE8eoeEl_4core7convertjINtB5_7TryIntohE8try_intoB7_
  2338: ffff80000008b630   108 FUNC    GLOBAL DEFAULT    2 _RNvMNtCs3i3vE8eoeEl_4core6resultINtB2_6ResulthNtNtNtB4_3num5error15TryFromIntErrorE6expectB4_
  2339: ffff80000008dec0    60 FUNC    GLOBAL DEFAULT    2 _RINvMNtCs3i3vE8eoeEl_4core5sliceSh3getINtNtNtB5_3ops5range5RangejEEB5_
  2340: ffff800000086290    95 FUNC    GLOBAL DEFAULT    2 _RNvXsJ_NtCs3i3vE8eoeEl_4core6optionINtB5_6OptionRShENtNtNtB7_3ops9try_trait3Try6branchB7_
  2341: ffff800000086360    34 FUNC    GLOBAL DEFAULT    2 _RNvXsK_NtCs3i3vE8eoeEl_4core6optionINtB5_6OptionTjjEEINtNtNtB7_3ops9try_trait12FromResidualIBy_NtNtB7_7convert10InfallibleEE13from_residualB7_
  2342: ffff800000083dc0    23 FUNC    GLOBAL DEFAULT    2 _RNvMNtNtCs3i3vE8eoeEl_4core3str7patternNtB2_12CharSearcher9utf8_size
  2343: ffff80000008ddc0    45 FUNC    GLOBAL DEFAULT    2 _RINvMNtCs3i3vE8eoeEl_4core5sliceSh13get_uncheckedjEB5_
  2344: ffff800000085570   260 FUNC    GLOBAL DEFAULT    2 _RNvXsd_NtCs3i3vE8eoeEl_4core5arrayAhj4_INtNtNtB7_3ops5index5IndexINtNtBG_5range5RangejEE5indexB7_
  2345: ffff800000081280    46 FUNC    GLOBAL DEFAULT    2 _RNvXs7_NtNtCs3i3vE8eoeEl_4core3cmp5implsRShNtB7_9PartialEq2eqB9_
  2346: ffff80000008ee10   201 FUNC    GLOBAL DEFAULT    2 _RNvMNtCs3i3vE8eoeEl_4core5sliceSh9ends_withB4_
  2347: ffff8000000827b0  2403 FUNC    GLOBAL DEFAULT    2 _RNvNtCs3i3vE8eoeEl_4core3fmt5write
  2348: ffff800000081380    24 FUNC    GLOBAL DEFAULT    2 _RINvMs2_NtCs3i3vE8eoeEl_4core3fmtNtB6_9Arguments3newKj2_Kj1_EB8_
  2349: ffff8000000918b0     0 NOTYPE  GLOBAL DEFAULT    2 load_gdt
  2350: ffff8000000803a0    86 FUNC    GLOBAL DEFAULT    2 _RINvNtNtCs3i3vE8eoeEl_4core5slice3raw18from_raw_parts_muthEB6_
  2351: ffff80000008e490   107 FUNC    GLOBAL DEFAULT    2 _RINvMNtNtCs3i3vE8eoeEl_4core3fmt2rtNtB3_8Argument11new_displayjEB7_
  2352: ffff80000008e7a0   107 FUNC    GLOBAL DEFAULT    2 _RINvMNtNtCs3i3vE8eoeEl_4core3fmt2rtNtB3_8Argument13new_upper_hexmEB7_
  2353: ffff8000000814a0    24 FUNC    GLOBAL DEFAULT    2 _RINvMs2_NtCs3i3vE8eoeEl_4core3fmtNtB6_9Arguments3newKj47_Kj3_EB8_
  2354: ffff80000007eac0    24 FUNC    GLOBAL DEFAULT    2 _RNvXs_NtNtCs3i3vE8eoeEl_4core5slice4iterRShNtNtNtNtB8_4iter6traits7collect12IntoIterator9into_iterB8_
  2355: ffff80000007e560   164 FUNC    GLOBAL DEFAULT    2 _RNvXs2J_NtNtCs3i3vE8eoeEl_4core5slice4iterINtB6_4IterhENtNtNtNtBa_4iter6traits8iterator8Iterator4nextBa_
  2356: ffff80000008fac0    40 FUNC    GLOBAL DEFAULT    2 _RNvNvNtCs3i3vE8eoeEl_4core5slice20copy_from_slice_impl17len_mismatch_fail
  2357: ffff80000007bad0   193 FUNC    GLOBAL DEFAULT    2 _RNvNtNtCs3i3vE8eoeEl_4core5slice5index16slice_index_fail
  2358: ffff8000000b5249     0 NOTYPE  GLOBAL DEFAULT   11 __kend
  2359: ffff800000082780    38 FUNC    GLOBAL DEFAULT    2 _RNvMsa_NtCs3i3vE8eoeEl_4core3fmtNtB5_9Formatter9write_str
  2360: ffff8000000812b0    46 FUNC    GLOBAL DEFAULT    2 _RNvXs7_NtNtCs3i3vE8eoeEl_4core3cmp5implsReNtB7_9PartialEq2eqB9_
  2361: ffff80000007c910   209 FUNC    GLOBAL DEFAULT    2 _RNvXs2_NtNtCs3i3vE8eoeEl_4core5slice5indexINtNtNtB9_3ops5range5RangejEINtB5_10SliceIndexShE9index_mutB9_
  2362: ffff80000008eb30    34 FUNC    GLOBAL DEFAULT    2 _RNvMNtCs3i3vE8eoeEl_4core5sliceSh15copy_from_sliceB4_
  2363: ffff80000008ed50    24 FUNC    GLOBAL DEFAULT    2 _RNvMNtCs3i3vE8eoeEl_4core5sliceSh8iter_mutB4_
  2364: ffff80000007ed50    35 FUNC    GLOBAL DEFAULT    2 _RNvYINtNtNtCs3i3vE8eoeEl_4core5slice4iter7IterMuthENtNtNtNtB9_4iter6traits8iterator8Iterator9enumerateB9_
  2365: ffff80000007e2f0    26 FUNC    GLOBAL DEFAULT    2 _RNvXNtNtNtCs3i3vE8eoeEl_4core4iter6traits7collectINtNtNtB6_8adapters9enumerate9EnumerateINtNtNtB8_5slice4iter7IterMuthEENtB2_12IntoIterator9into_iterB8_
  2366: ffff80000007eb00   193 FUNC    GLOBAL DEFAULT    2 _RNvXs_NtNtNtCs3i3vE8eoeEl_4core4iter8adapters9enumerateINtB4_9EnumerateINtNtNtBa_5slice4iter7IterMuthEENtNtNtB8_6traits8iterator8Iterator4nextBa_
  2367: ffff80000008ed10    32 FUNC    GLOBAL DEFAULT    2 _RNvMNtCs3i3vE8eoeEl_4core5sliceSh4fillB4_
  2368: ffff80000009188e     0 NOTYPE  GLOBAL DEFAULT    2 memcpy_qword
  2369: ffff80000009190a     0 NOTYPE  GLOBAL DEFAULT    2 _ap_trampoline_end
  2370: ffff8000000918f0     0 NOTYPE  GLOBAL DEFAULT    2 _ap_trampoline
  2371: ffff800000091942     0 NOTYPE  GLOBAL DEFAULT    2 _ap_bootup0_end
  2372: ffff80000009190b     0 NOTYPE  GLOBAL DEFAULT    2 _ap_bootup0
  2373: ffff800000091990     0 NOTYPE  GLOBAL DEFAULT    2 _ap_bootup1_end
  2374: ffff800000091943     0 NOTYPE  GLOBAL DEFAULT    2 _ap_bootup1
  2375: ffff800000081400    24 FUNC    GLOBAL DEFAULT    2 _RINvMs2_NtCs3i3vE8eoeEl_4core3fmtNtB6_9Arguments3newKj2f_Kj3_EB8_
  2376: ffff80000008d061   779 FUNC    GLOBAL DEFAULT    2 _RNvNtCs3i3vE8eoeEl_4core9panicking19assert_failed_inner
  2377: ffff80000008f1f0    24 FUNC    GLOBAL DEFAULT    2 _RNvMNtCs3i3vE8eoeEl_4core5sliceSm4iterB4_
  2378: ffff80000008e570   107 FUNC    GLOBAL DEFAULT    2 _RINvMNtNtCs3i3vE8eoeEl_4core3fmt2rtNtB3_8Argument11new_displaytEB7_
  2379: ffff8000000918d7     0 NOTYPE  GLOBAL DEFAULT    2 set_cr3
  2380: ffff80000008c705    80 FUNC    GLOBAL DEFAULT    2 _RINvNtCs3i3vE8eoeEl_4core9panicking13assert_failedmmEB4_
  2381: ffff80000007e720   164 FUNC    GLOBAL DEFAULT    2 _RNvXs2J_NtNtCs3i3vE8eoeEl_4core5slice4iterINtB6_4ItermENtNtNtNtBa_4iter6traits8iterator8Iterator4nextBa_
  2382: ffff8000000813c0    24 FUNC    GLOBAL DEFAULT    2 _RINvMs2_NtCs3i3vE8eoeEl_4core3fmtNtB6_9Arguments3newKj2d_Kj1_EB8_
  2383: ffff800000085c90    58 FUNC    GLOBAL DEFAULT    2 _RNvMNtCs3i3vE8eoeEl_4core6optionINtB2_6OptionReE7is_someB4_
  2384: ffff800000083530    93 FUNC    GLOBAL DEFAULT    2 _RNvXsg_NtCs3i3vE8eoeEl_4core3fmtbNtB5_7Display3fmt
  2385: ffff800000084980    59 FUNC    GLOBAL DEFAULT    2 _RNvNtNtCs3i3vE8eoeEl_4core5slice6memchr14memchr_aligned
  2386: ffff80000007ce30   131 FUNC    GLOBAL DEFAULT    2 _RNvXs5_NtNtCs3i3vE8eoeEl_4core5slice5indexINtNtNtB9_3ops5range9RangeFromjEINtB5_10SliceIndexShE5indexB9_
  2387: ffff8000000833e0    45 FUNC    GLOBAL DEFAULT    2 _RNvXs2_NtNtCs3i3vE8eoeEl_4core3str6traitseINtNtNtB9_3ops5index5IndexINtNtBJ_5range9RangeFromjEE5indexB9_
  2388: ffff80000008e3b0   107 FUNC    GLOBAL DEFAULT    2 _RINvMNtNtCs3i3vE8eoeEl_4core3fmt2rtNtB3_8Argument11new_displaycEB7_
  2389: ffff800000082100   132 FUNC    GLOBAL DEFAULT    2 _RNvMsa_NtCs3i3vE8eoeEl_4core3fmtNtB5_9Formatter26debug_struct_field1_finish
  2390: ffff800000082090    98 FUNC    GLOBAL DEFAULT    2 _RNvMsa_NtCs3i3vE8eoeEl_4core3fmtNtB5_9Formatter25debug_tuple_field1_finish
  2391: ffff800000083320    29 FUNC    GLOBAL DEFAULT    2 _RNvXs1g_NtCs3i3vE8eoeEl_4core3fmtRyNtB6_5Debug3fmtB8_
  2392: ffff80000008e650   107 FUNC    GLOBAL DEFAULT    2 _RINvMNtNtCs3i3vE8eoeEl_4core3fmt2rtNtB3_8Argument13new_lower_hexhEB7_
  2393: ffff80000007d8d0    10 FUNC    GLOBAL DEFAULT    2 _RNvMNtNtCs3i3vE8eoeEl_4core3mem14maybe_danglingINtB2_13MaybeDanglingINtNvNtB6_4hint20select_unpredictable11DropOnPanicjEE3newB6_
  2394: ffff80000007d8e0    15 FUNC    GLOBAL DEFAULT    2 _RNvMNtNtCs3i3vE8eoeEl_4core3mem14maybe_danglingINtB2_13MaybeDanglinghE3newB6_
  2395: ffff80000007d8f0    10 FUNC    GLOBAL DEFAULT    2 _RNvMNtNtCs3i3vE8eoeEl_4core3mem14maybe_danglingINtB2_13MaybeDanglingjE3newB6_
  2396: ffff80000007b9e0    60 FUNC    GLOBAL DEFAULT    2 _RINvMNtCs3i3vE8eoeEl_4core5sliceSNtNtNtB5_5ascii10ascii_char9AsciiChar13get_uncheckedINtNtNtB5_3ops5range5RangejEEB5_
  2397: ffff80000007c780   162 FUNC    GLOBAL DEFAULT    2 _RNvXs2_NtNtCs3i3vE8eoeEl_4core5slice5indexINtNtNtB9_3ops5range5RangejEINtB5_10SliceIndexSNtNtNtB9_5ascii10ascii_char9AsciiCharE13get_uncheckedB9_
  2398: ffff80000007ba20    24 FUNC    GLOBAL DEFAULT    2 _RINvNtCs3i3vE8eoeEl_4core3cmp3minjEB4_
  2399: ffff80000007d300   123 FUNC    GLOBAL DEFAULT    2 _RNvYjNtNtCs3i3vE8eoeEl_4core3cmp3Ord3minB7_
  2400: ffff80000007ba40    24 FUNC    GLOBAL DEFAULT    2 _RINvNtCs3i3vE8eoeEl_4core3mem6forgetINtNvNtB4_4hint20select_unpredictable11DropOnPanicjEEB4_
  2401: ffff80000008ed30    24 FUNC    GLOBAL DEFAULT    2 _RNvMNtCs3i3vE8eoeEl_4core5sliceSh4iterB4_
  2402: ffff80000007e7d0   157 FUNC    GLOBAL DEFAULT    2 _RNvXs2R_NtNtCs3i3vE8eoeEl_4core5slice4iterINtB6_7IterMuthENtNtNtNtBa_4iter6traits8iterator8Iterator4nextBa_
  2403: ffff80000007ba60    24 FUNC    GLOBAL DEFAULT    2 _RNvMNtNtNtCs3i3vE8eoeEl_4core4iter8adapters6clonedINtB2_6ClonedINtNtNtB8_5slice4iter4IterhEE3newB8_
  2404: ffff80000007ba80    24 FUNC    GLOBAL DEFAULT    2 _RNvMs1_NtNtCs3i3vE8eoeEl_4core3ptr9const_ptrPSNtNtNtB9_5ascii10ascii_char9AsciiChar3lenB9_
  2405: ffff8000000816a0    21 FUNC    GLOBAL DEFAULT    2 _RINvNtNtCs3i3vE8eoeEl_4core3ptr8metadata8metadataSNtNtNtB6_5ascii10ascii_char9AsciiCharEB6_
  2406: ffff80000007bba0   544 FUNC    GLOBAL DEFAULT    2 _RNvNtNtCs3i3vE8eoeEl_4core7unicode9printable12is_printable
  2407: ffff80000007eaa0    24 FUNC    GLOBAL DEFAULT    2 _RNvXs_NtNtCs3i3vE8eoeEl_4core5slice4iterRSThhENtNtNtNtB8_4iter6traits7collect12IntoIterator9into_iterB8_
  2408: ffff80000007e4b0   164 FUNC    GLOBAL DEFAULT    2 _RNvXs2J_NtNtCs3i3vE8eoeEl_4core5slice4iterINtB6_4IterThhEENtNtNtNtBa_4iter6traits8iterator8Iterator4nextBa_
  2409: ffff80000007dac0    24 FUNC    GLOBAL DEFAULT    2 _RINvYINtNtNtCs3i3vE8eoeEl_4core5slice4iter4IterhENtNtNtNtBa_4iter6traits8iterator8Iterator6clonedhEBa_
  2410: ffff80000007d290    20 FUNC    GLOBAL DEFAULT    2 _RNvXs_NtNtNtCs3i3vE8eoeEl_4core4iter8adapters6clonedINtB4_6ClonedINtNtNtBa_5slice4iter4IterhEENtNtNtB8_6traits8iterator8Iterator4nextBa_
  2411: ffff800000081460    24 FUNC    GLOBAL DEFAULT    2 _RINvMs2_NtCs3i3vE8eoeEl_4core3fmtNtB6_9Arguments3newKj39_Kj2_EB8_
  2412: ffff800000081360    24 FUNC    GLOBAL DEFAULT    2 _RINvMs2_NtCs3i3vE8eoeEl_4core3fmtNtB6_9Arguments3newKj28_Kj2_EB8_
  2413: ffff800000081420    24 FUNC    GLOBAL DEFAULT    2 _RINvMs2_NtCs3i3vE8eoeEl_4core3fmtNtB6_9Arguments3newKj37_Kj2_EB8_
  2414: ffff80000008cea0    28 FUNC    GLOBAL DEFAULT    2 _RNvMs2_NtNtCs3i3vE8eoeEl_4core3fmt8buildersNtB5_10DebugTuple5field
  2415: ffff80000008cec0    68 FUNC    GLOBAL DEFAULT    2 _RNvMs2_NtNtCs3i3vE8eoeEl_4core3fmt8buildersNtB5_10DebugTuple6finish
  2416: ffff800000083590    47 FUNC    GLOBAL DEFAULT    2 _RNvXsi_NtCs3i3vE8eoeEl_4core3fmteNtB5_7Display3fmt
  2417: ffff800000081680    21 FUNC    GLOBAL DEFAULT    2 _RINvNtNtCs3i3vE8eoeEl_4core3ptr8metadata8metadataSINtNtNtB6_3mem12maybe_uninit11MaybeUninithEEB6_
  2418: ffff80000007c580   118 FUNC    GLOBAL DEFAULT    2 _RNvXs0_NtNtCs3i3vE8eoeEl_4core5slice5indexjINtB5_10SliceIndexSNtNtNtB9_7unicode12unicode_data20ShortOffsetRunHeaderE13get_uncheckedB9_
  2419: ffff80000008f510    24 FUNC    GLOBAL DEFAULT    2 _RNvMs1_NtNtCs3i3vE8eoeEl_4core3ptr9const_ptrPSNtNtNtB9_7unicode12unicode_data20ShortOffsetRunHeader3lenB9_
  2420: ffff80000007c600    75 FUNC    GLOBAL DEFAULT    2 _RNvXs0_NtNtCs3i3vE8eoeEl_4core5slice5indexjINtB5_10SliceIndexSNtNtNtB9_7unicode12unicode_data20ShortOffsetRunHeaderE3getB9_
  2421: ffff80000007c650   114 FUNC    GLOBAL DEFAULT    2 _RNvXs0_NtNtCs3i3vE8eoeEl_4core5slice5indexjINtB5_10SliceIndexShE13get_uncheckedB9_
  2422: ffff8000000806d0    24 FUNC    GLOBAL DEFAULT    2 _RNvMs1_NtNtCs3i3vE8eoeEl_4core3ptr9const_ptrPSh3lenB9_
  2423: ffff800000085e40    12 FUNC    GLOBAL DEFAULT    2 _RNvMs1_NtCs3i3vE8eoeEl_4core6optionINtB5_6OptionRhE6clonedB7_
  2424: ffff80000007c6d0   162 FUNC    GLOBAL DEFAULT    2 _RNvXs2_NtNtCs3i3vE8eoeEl_4core5slice5indexINtNtNtB9_3ops5range5RangejEINtB5_10SliceIndexSINtNtNtB9_3mem12maybe_uninit11MaybeUninithEE13get_uncheckedB9_
  2425: ffff80000008baa0    24 FUNC    GLOBAL DEFAULT    2 _RNvMs1_NtNtCs3i3vE8eoeEl_4core3ptr9const_ptrPSINtNtNtB9_3mem12maybe_uninit11MaybeUninithE3lenB9_
  2426: ffff80000007c830   218 FUNC    GLOBAL DEFAULT    2 _RNvXs2_NtNtCs3i3vE8eoeEl_4core5slice5indexINtNtNtB9_3ops5range5RangejEINtB5_10SliceIndexShE3getB9_
  2427: ffff80000007c9f0   108 FUNC    GLOBAL DEFAULT    2 _RNvXs3_NtNtCs3i3vE8eoeEl_4core4iter5rangeINtNtNtB9_3ops5range5RangehENtB5_17RangeIteratorImpl9spec_nextB9_
  2428: ffff80000007ca60   124 FUNC    GLOBAL DEFAULT    2 _RNvXs3_NtNtCs3i3vE8eoeEl_4core4iter5rangeINtNtNtB9_3ops5range5RangejENtB5_17RangeIteratorImpl9spec_nextB9_
  2429: ffff80000007cae0   123 FUNC    GLOBAL DEFAULT    2 _RNvXs3_NtNtCs3i3vE8eoeEl_4core4iter5rangeINtNtNtB9_3ops5range5RangetENtB5_17RangeIteratorImpl9spec_nextB9_
  2430: ffff8000000806f0    21 FUNC    GLOBAL DEFAULT    2 _RNvMs1_NtNtCs3i3vE8eoeEl_4core3ptr9const_ptrPSh6as_ptrB9_
  2431: ffff80000007ff60    24 FUNC    GLOBAL DEFAULT    2 _RINvNtCs3i3vE8eoeEl_4core3ptr20slice_from_raw_partshEB4_
  2432: ffff800000083e60    69 FUNC    GLOBAL DEFAULT    2 _RNvNtCs3i3vE8eoeEl_4core3str16slice_error_fail
  2433: ffff80000007cdd0    90 FUNC    GLOBAL DEFAULT    2 _RNvXs5_NtNtCs3i3vE8eoeEl_4core5slice5indexINtNtNtB9_3ops5range9RangeFromjEINtB5_10SliceIndexSINtNtNtB9_3mem12maybe_uninit11MaybeUninithEE13get_uncheckedB9_
  2434: ffff80000008b9e0    51 FUNC    GLOBAL DEFAULT    2 _RNvXsp_NtCs3i3vE8eoeEl_4core6resultINtB5_6ResultuNtNtB7_3fmt5ErrorENtNtNtB7_3ops9try_trait3Try6branchB7_
  2435: ffff80000008ba30    13 FUNC    GLOBAL DEFAULT    2 _RNvXsq_NtCs3i3vE8eoeEl_4core6resultINtB5_6ResultuNtNtB7_3fmt5ErrorEINtNtNtB7_3ops9try_trait12FromResidualIBy_NtNtB7_7convert10InfallibleBL_EE13from_residualB7_
  2436: ffff80000007d1a0   229 FUNC    GLOBAL DEFAULT    2 _RNvXs_NtNtCs3i3vE8eoeEl_4core3ops5rangeINtB4_5RangejENtNtB8_3fmt5Debug3fmtB8_
  2437: ffff800000081160   123 FUNC    GLOBAL DEFAULT    2 _RNvXNtNtCs3i3vE8eoeEl_4core5slice3cmpShNtNtB6_3cmp9PartialEq2eqB6_
  2438: ffff80000008b2e0    10 FUNC    GLOBAL DEFAULT    2 _RNvMse_NtNtCs3i3vE8eoeEl_4core3num7nonzeroINtB5_7NonZerojE3newB9_
  2439: ffff8000000862f0    70 FUNC    GLOBAL DEFAULT    2 _RNvXsJ_NtCs3i3vE8eoeEl_4core6optionINtB5_6OptionRhENtNtNtB7_3ops9try_trait3Try6branchB7_
  2440: ffff800000083500    33 FUNC    GLOBAL DEFAULT    2 _RNvXsb_NtCs3i3vE8eoeEl_4core3fmtNtB5_9FormatterNtB5_5Write10write_char
  2441: ffff80000008e8f0   107 FUNC    GLOBAL DEFAULT    2 _RINvMNtNtCs3i3vE8eoeEl_4core3fmt2rtNtB3_8Argument9new_debugcEB7_
  2442: ffff8000000835c0   245 FUNC    GLOBAL DEFAULT    2 _RNvXsj_NtCs3i3vE8eoeEl_4core3fmtcNtB5_5Debug3fmt
  2443: ffff8000000800e0   402 FUNC    GLOBAL DEFAULT    2 _RINvNtNtCs3i3vE8eoeEl_4core3str11validations15next_code_pointINtNtNtB6_5slice4iter4IterhEEB6_
  2444: ffff80000007dee0    79 FUNC    GLOBAL DEFAULT    2 _RNvMs4_NtNtCs3i3vE8eoeEl_4core5slice4iterINtB5_4IterhE8as_sliceB9_
  2445: ffff800000083300    29 FUNC    GLOBAL DEFAULT    2 _RNvXs1g_NtCs3i3vE8eoeEl_4core3fmtRuNtB6_5Debug3fmtB8_
  2446: ffff80000007d950   295 FUNC    GLOBAL DEFAULT    2 _RINvXs2J_NtNtCs3i3vE8eoeEl_4core5slice4iterINtB7_4IterhENtNtNtNtBb_4iter6traits8iterator8Iterator4foldjNCINvNtNtBY_8adapters3map8map_foldRhjjNCINvNvXs1_NtB1K_6filterINtB2q_6FilterppEBS_5count8to_usizeB2b_NCNvNtNtBb_3str5count23char_count_general_case0E0NCINvXsK_NtBW_5accumjNtB4c_3Sum3sumINtB1I_3MapBF_B2f_EE0E0EBb_
  2447: ffff800000086400    42 FUNC    GLOBAL DEFAULT    2 _RNvXse_NtNtCs3i3vE8eoeEl_4core3ptr8non_nullINtB5_7NonNullhENtNtB9_3cmp9PartialEq2eqB9_
  2448: ffff800000085fd0    41 FUNC    GLOBAL DEFAULT    2 _RNvMs1_NtNtCs3i3vE8eoeEl_4core3ptr8non_nullINtB5_7NonNullhE20offset_from_unsignedB9_
  2449: ffff800000085ad0    70 FUNC    GLOBAL DEFAULT    2 _RNCINvNtNtNtCs3i3vE8eoeEl_4core4iter8adapters3map8map_foldRhjjNCINvNvXs1_NtB6_6filterINtB19_6FilterppENtNtNtB8_6traits8iterator8Iterator5count8to_usizeBU_NCNvNtNtBa_3str5count23char_count_general_case0E0NCINvXsK_NtB1G_5accumjNtB3o_3Sum3sumINtB4_3MapINtNtNtBa_5slice4iter4IterhEBY_EE0E0Ba_
  2450: ffff80000007da80    28 FUNC    GLOBAL DEFAULT    2 _RINvXsK_NtNtNtCs3i3vE8eoeEl_4core4iter6traits5accumjNtB6_3Sum3sumINtNtNtBa_8adapters3map3MapINtNtNtBc_5slice4iter4IterhENCINvNvXs1_NtB16_6filterINtB25_6FilterppENtNtB8_8iterator8Iterator5count8to_usizeRhNCNvNtNtBc_3str5count23char_count_general_case0E0EEBc_
  2451: ffff800000085a70    62 FUNC    GLOBAL DEFAULT    2 _RINvXs0_NtNtNtCs3i3vE8eoeEl_4core4iter8adapters3mapINtB6_3MapINtNtNtBc_5slice4iter4IterhENCINvNvXs1_NtB8_6filterINtB1A_6FilterppENtNtNtBa_6traits8iterator8Iterator5count8to_usizeRhNCNvNtNtBc_3str5count23char_count_general_case0E0EB23_4foldjNCINvXsK_NtB27_5accumjNtB3Z_3Sum3sumBN_E0EBc_
  2452: ffff80000007daa0    23 FUNC    GLOBAL DEFAULT    2 _RINvYINtNtNtCs3i3vE8eoeEl_4core5slice4iter4IterhENtNtNtNtBa_4iter6traits8iterator8Iterator3mapjNCINvNvXs1_NtNtBR_8adapters6filterINtB1G_6FilterppEBL_5count8to_usizeRhNCNvNtNtBa_3str5count23char_count_general_case0E0EBa_
  2453: ffff800000085e20    24 FUNC    GLOBAL DEFAULT    2 _RNvMNtNtNtCs3i3vE8eoeEl_4core4iter8adapters3mapINtB2_3MapINtNtNtB8_5slice4iter4IterhENCINvNvXs1_NtB4_6filterINtB1w_6FilterppENtNtNtB6_6traits8iterator8Iterator5count8to_usizeRhNCNvNtNtB8_3str5count23char_count_general_case0E0E3newB8_
  2454: ffff80000007dae0    23 FUNC    GLOBAL DEFAULT    2 _RINvYINtNtNtCs3i3vE8eoeEl_4core5slice4iter4IterhENtNtNtNtBa_4iter6traits8iterator8Iterator6filterNCNvNtNtBa_3str5count23char_count_general_case0EBa_
  2455: ffff80000008b830    24 FUNC    GLOBAL DEFAULT    2 _RNvMNtNtNtCs3i3vE8eoeEl_4core4iter8adapters6filterINtB2_6FilterINtNtNtB8_5slice4iter4IterhENCNvNtNtB8_3str5count23char_count_general_case0E3newB8_
  2456: ffff80000007db00   239 FUNC    GLOBAL DEFAULT    2 _RINvYNtNtNtCs3i3vE8eoeEl_4core3str4iter11CharIndicesNtNtNtNtB9_4iter6traits8iterator8Iterator8try_foldINtNtNtB9_3num7nonzero7NonZerojENCNvXs_NvBO_10advance_byB3_NtB2f_13SpecAdvanceBy15spec_advance_by0INtNtB9_6option6OptionB1C_EEB9_
  2457: ffff80000008b590    86 FUNC    GLOBAL DEFAULT    2 _RNCNvXs_NvNtNtNtNtCs3i3vE8eoeEl_4core4iter6traits8iterator8Iterator10advance_byNtNtNtBg_3str4iter11CharIndicesNtB6_13SpecAdvanceBy15spec_advance_by0Bg_
  2458: ffff8000000861f0    67 FUNC    GLOBAL DEFAULT    2 _RNvXsJ_NtCs3i3vE8eoeEl_4core6optionINtB5_6OptionINtNtNtB7_3num7nonzero7NonZerojEENtNtNtB7_3ops9try_trait3Try6branchB7_
  2459: ffff8000000861e0    10 FUNC    GLOBAL DEFAULT    2 _RNvXsJ_NtCs3i3vE8eoeEl_4core6optionINtB5_6OptionINtNtNtB7_3num7nonzero7NonZerojEENtNtNtB7_3ops9try_trait3Try11from_outputB7_
  2460: ffff800000086340    11 FUNC    GLOBAL DEFAULT    2 _RNvXsK_NtCs3i3vE8eoeEl_4core6optionINtB5_6OptionINtNtNtB7_3num7nonzero7NonZerojEEINtNtNtB7_3ops9try_trait12FromResidualIBy_NtNtB7_7convert10InfallibleEE13from_residualB7_
  2461: ffff80000007dbf0    60 FUNC    GLOBAL DEFAULT    2 _RNCINvXsK_NtNtNtCs3i3vE8eoeEl_4core4iter6traits5accumjNtB8_3Sum3sumINtNtNtBc_8adapters3map3MapINtNtNtBe_5slice4iter4IterhENCINvNvXs1_NtB18_6filterINtB27_6FilterppENtNtBa_8iterator8Iterator5count8to_usizeRhNCNvNtNtBe_3str5count23char_count_general_case0E0EE0Be_
  2462: ffff80000007dc30    12 FUNC    GLOBAL DEFAULT    2 _RNCNvXNtNtCs3i3vE8eoeEl_4core3str4iterNtB4_5CharsNtNtNtNtB8_4iter6traits8iterator8Iterator4next0B8_
  2463: ffff80000007dc40    36 FUNC    GLOBAL DEFAULT    2 _RNvMNtNtNtCs3i3vE8eoeEl_4core4iter8adapters9enumerateINtB2_9EnumerateINtNtNtB8_5slice4iter7IterMuthEE3newB8_
  2464: ffff80000007dc70    37 FUNC    GLOBAL DEFAULT    2 _RNvMs15_NtNtCs3i3vE8eoeEl_4core5slice4iterINtB6_6ChunksjE3newBa_
  2465: ffff80000007dd00   150 FUNC    GLOBAL DEFAULT    2 _RNvMs4_NtNtCs3i3vE8eoeEl_4core5slice4iterINtB5_4IterAjj4_E3newB9_
  2466: ffff800000085f00    24 FUNC    GLOBAL DEFAULT    2 _RNvMs1_NtNtCs3i3vE8eoeEl_4core3ptr8non_nullINtB5_7NonNullSAjj4_E8from_refB9_
  2467: ffff8000000858c0    31 FUNC    GLOBAL DEFAULT    2 _RINvMs1_NtNtCs3i3vE8eoeEl_4core3ptr8non_nullINtB6_7NonNullSAjj4_E4castBV_EBa_
  2468: ffff80000007dda0   149 FUNC    GLOBAL DEFAULT    2 _RNvMs4_NtNtCs3i3vE8eoeEl_4core5slice4iterINtB5_4IterThhEE3newB9_
  2469: ffff800000085f20    24 FUNC    GLOBAL DEFAULT    2 _RNvMs1_NtNtCs3i3vE8eoeEl_4core3ptr8non_nullINtB5_7NonNullSThhEE8from_refB9_
  2470: ffff8000000858e0    31 FUNC    GLOBAL DEFAULT    2 _RINvMs1_NtNtCs3i3vE8eoeEl_4core3ptr8non_nullINtB6_7NonNullSThhEE4castBV_EBa_
  2471: ffff80000007de40   146 FUNC    GLOBAL DEFAULT    2 _RNvMs4_NtNtCs3i3vE8eoeEl_4core5slice4iterINtB5_4IterhE3newB9_
  2472: ffff800000085f60    24 FUNC    GLOBAL DEFAULT    2 _RNvMs1_NtNtCs3i3vE8eoeEl_4core3ptr8non_nullINtB5_7NonNullShE8from_refB9_
  2473: ffff800000085900    31 FUNC    GLOBAL DEFAULT    2 _RINvMs1_NtNtCs3i3vE8eoeEl_4core3ptr8non_nullINtB6_7NonNullShE4casthEBa_
  2474: ffff80000007df30   150 FUNC    GLOBAL DEFAULT    2 _RNvMs4_NtNtCs3i3vE8eoeEl_4core5slice4iterINtB5_4IterjE3newB9_
  2475: ffff800000085f80    24 FUNC    GLOBAL DEFAULT    2 _RNvMs1_NtNtCs3i3vE8eoeEl_4core3ptr8non_nullINtB5_7NonNullSjE8from_refB9_
  2476: ffff800000085920    31 FUNC    GLOBAL DEFAULT    2 _RINvMs1_NtNtCs3i3vE8eoeEl_4core3ptr8non_nullINtB6_7NonNullSjE4castjEBa_
  2477: ffff80000007dfd0   150 FUNC    GLOBAL DEFAULT    2 _RNvMs4_NtNtCs3i3vE8eoeEl_4core5slice4iterINtB5_4ItermE3newB9_
  2478: ffff800000085fa0    24 FUNC    GLOBAL DEFAULT    2 _RNvMs1_NtNtCs3i3vE8eoeEl_4core3ptr8non_nullINtB5_7NonNullSmE8from_refB9_
  2479: ffff800000085940    31 FUNC    GLOBAL DEFAULT    2 _RINvMs1_NtNtCs3i3vE8eoeEl_4core3ptr8non_nullINtB6_7NonNullSmE4castmEBa_
  2480: ffff80000007e080   146 FUNC    GLOBAL DEFAULT    2 _RNvMsa_NtNtCs3i3vE8eoeEl_4core5slice4iterINtB5_7IterMuthE3newB9_
  2481: ffff800000085f40    24 FUNC    GLOBAL DEFAULT    2 _RNvMs1_NtNtCs3i3vE8eoeEl_4core3ptr8non_nullINtB5_7NonNullShE8from_mutB9_
  2482: ffff80000007e120   203 FUNC    GLOBAL DEFAULT    2 _RNvMsf_NtNtCs3i3vE8eoeEl_4core3str4iterINtB5_13SplitInternalcE14next_inclusiveB9_
  2483: ffff8000000857c0    84 FUNC    GLOBAL DEFAULT    2 _RINvMNtCs3i3vE8eoeEl_4core6optionINtB3_6OptionmE3mapcNCNvXNtNtB5_3str4iterNtBU_5CharsNtNtNtNtB5_4iter6traits8iterator8Iterator4next0EB5_
  2484: ffff80000007e310    24 FUNC    GLOBAL DEFAULT    2 _RNvXNtNtNtCs3i3vE8eoeEl_4core4iter6traits7collectINtNtNtB8_3str4iter14SplitInclusivecENtB2_12IntoIterator9into_iterB8_
  2485: ffff80000007e330    26 FUNC    GLOBAL DEFAULT    2 _RNvXNtNtNtCs3i3vE8eoeEl_4core4iter6traits7collectINtNtNtB8_5slice4iter6ChunksjENtB2_12IntoIterator9into_iterB8_
  2486: ffff80000007e350   172 FUNC    GLOBAL DEFAULT    2 _RNvXs17_NtNtCs3i3vE8eoeEl_4core5slice4iterINtB6_6ChunksjENtNtNtNtBa_4iter6traits8iterator8Iterator4nextBa_
  2487: ffff80000008f130    27 FUNC    GLOBAL DEFAULT    2 _RNvMNtCs3i3vE8eoeEl_4core5sliceSj8is_emptyB4_
  2488: ffff80000008f150   155 FUNC    GLOBAL DEFAULT    2 _RNvMNtCs3i3vE8eoeEl_4core5sliceSj8split_atB4_
  2489: ffff80000007e400   164 FUNC    GLOBAL DEFAULT    2 _RNvXs2J_NtNtCs3i3vE8eoeEl_4core5slice4iterINtB6_4IterAjj4_ENtNtNtNtBa_4iter6traits8iterator8Iterator4nextBa_
  2490: ffff8000000863a0    42 FUNC    GLOBAL DEFAULT    2 _RNvXse_NtNtCs3i3vE8eoeEl_4core3ptr8non_nullINtB5_7NonNullAjj4_ENtNtB9_3cmp9PartialEq2eqB9_
  2491: ffff8000000863d0    42 FUNC    GLOBAL DEFAULT    2 _RNvXse_NtNtCs3i3vE8eoeEl_4core3ptr8non_nullINtB5_7NonNullThhEENtNtB9_3cmp9PartialEq2eqB9_
  2492: ffff80000007e610    91 FUNC    GLOBAL DEFAULT    2 _RNvXs2J_NtNtCs3i3vE8eoeEl_4core5slice4iterINtB6_4IterhENtNtNtNtBa_4iter6traits8iterator8Iterator9size_hintBa_
  2493: ffff80000007e670   164 FUNC    GLOBAL DEFAULT    2 _RNvXs2J_NtNtCs3i3vE8eoeEl_4core5slice4iterINtB6_4IterjENtNtNtNtBa_4iter6traits8iterator8Iterator4nextBa_
  2494: ffff800000086430    42 FUNC    GLOBAL DEFAULT    2 _RNvXse_NtNtCs3i3vE8eoeEl_4core3ptr8non_nullINtB5_7NonNulljENtNtB9_3cmp9PartialEq2eqB9_
  2495: ffff800000086460    42 FUNC    GLOBAL DEFAULT    2 _RNvXse_NtNtCs3i3vE8eoeEl_4core3ptr8non_nullINtB5_7NonNullmENtNtB9_3cmp9PartialEq2eqB9_
  2496: ffff80000008ce00    38 FUNC    GLOBAL DEFAULT    2 _RNvMs1_NtNtCs3i3vE8eoeEl_4core3fmt8buildersNtB5_11DebugStruct5field
  2497: ffff80000008ce30    68 FUNC    GLOBAL DEFAULT    2 _RNvMs1_NtNtCs3i3vE8eoeEl_4core3fmt8buildersNtB5_11DebugStruct6finish
  2498: ffff80000007e9c0    68 FUNC    GLOBAL DEFAULT    2 _RNvXs8_NtNtNtCs3i3vE8eoeEl_4core4iter8adapters6filterINtNtNtBb_5slice4iter4IterhENtB5_15SpecAssumeCount27assume_count_le_upper_boundBb_
  2499: ffff80000007ea70    12 FUNC    GLOBAL DEFAULT    2 _RNvXsH_NtNtCs3i3vE8eoeEl_4core3str4iterINtB5_14SplitInclusivecENtNtNtNtB9_4iter6traits8iterator8Iterator4nextB9_
  2500: ffff80000007ea80    24 FUNC    GLOBAL DEFAULT    2 _RNvXs_NtNtCs3i3vE8eoeEl_4core5slice4iterRSAjj4_NtNtNtNtB8_4iter6traits7collect12IntoIterator9into_iterB8_
  2501: ffff80000008eaf0    24 FUNC    GLOBAL DEFAULT    2 _RNvMNtCs3i3vE8eoeEl_4core5sliceSAjj4_4iterB4_
  2502: ffff80000008eb10    24 FUNC    GLOBAL DEFAULT    2 _RNvMNtCs3i3vE8eoeEl_4core5sliceSThhE4iterB4_
  2503: ffff80000007eae0    24 FUNC    GLOBAL DEFAULT    2 _RNvXs_NtNtCs3i3vE8eoeEl_4core5slice4iterRSjNtNtNtNtB8_4iter6traits7collect12IntoIterator9into_iterB8_
  2504: ffff80000008f090    24 FUNC    GLOBAL DEFAULT    2 _RNvMNtCs3i3vE8eoeEl_4core5sliceSj4iterB4_
  2505: ffff800000086240    70 FUNC    GLOBAL DEFAULT    2 _RNvXsJ_NtCs3i3vE8eoeEl_4core6optionINtB5_6OptionQhENtNtNtB7_3ops9try_trait3Try6branchB7_
  2506: ffff800000086350    13 FUNC    GLOBAL DEFAULT    2 _RNvXsK_NtCs3i3vE8eoeEl_4core6optionINtB5_6OptionTjQhEEINtNtNtB7_3ops9try_trait12FromResidualIBy_NtNtB7_7convert10InfallibleEE13from_residualB7_
  2507: ffff80000007ebd0   164 FUNC    GLOBAL DEFAULT    2 _RNvXs_NvNtNtNtNtCs3i3vE8eoeEl_4core4iter6traits8iterator8Iterator10advance_byNtNtNtBe_3str4iter11CharIndicesNtB4_13SpecAdvanceBy15spec_advance_byBe_
  2508: ffff80000007ed80    24 FUNC    GLOBAL DEFAULT    2 _RNvYNtNtNtCs3i3vE8eoeEl_4core3str4iter11CharIndicesNtNtNtNtB8_4iter6traits8iterator8Iterator10advance_byB8_
  2509: ffff80000008ba40    45 FUNC    GLOBAL DEFAULT    2 _RINvMNtCs3i3vE8eoeEl_4core5sliceSINtNtNtB5_3mem12maybe_uninit11MaybeUninithE13get_uncheckedINtNtNtB5_3ops5range9RangeFromjEEB5_
  2510: ffff800000085d80    85 FUNC    GLOBAL DEFAULT    2 _RNvMNtCs3i3vE8eoeEl_4core6optionINtB2_6OptionmE9unwrap_orB4_
  2511: ffff800000081ab0  1401 FUNC    GLOBAL DEFAULT    2 _RNvMsa_NtCs3i3vE8eoeEl_4core3fmtNtB5_9Formatter12pad_integral
  2512: ffff8000000826c0    23 FUNC    GLOBAL DEFAULT    2 _RNvMsa_NtCs3i3vE8eoeEl_4core3fmtNtB5_9Formatter9sign_plus
  2513: ffff80000007eeb0   458 FUNC    GLOBAL DEFAULT    2 _RNvXs6_NtNtCs3i3vE8eoeEl_4core3fmt3numjNtB7_8LowerHex3fmt
  2514: ffff80000007f080   458 FUNC    GLOBAL DEFAULT    2 _RNvXs8_NtNtCs3i3vE8eoeEl_4core3fmt3numjNtB7_8UpperHex3fmt
  2515: ffff80000007f420   458 FUNC    GLOBAL DEFAULT    2 _RNvXsE_NtNtCs3i3vE8eoeEl_4core3fmt3numyNtB7_8UpperHex3fmt
  2516: ffff800000082030    23 FUNC    GLOBAL DEFAULT    2 _RNvMsa_NtCs3i3vE8eoeEl_4core3fmtNtB5_9Formatter15debug_lower_hex
  2517: ffff800000082050    23 FUNC    GLOBAL DEFAULT    2 _RNvMsa_NtCs3i3vE8eoeEl_4core3fmtNtB5_9Formatter15debug_upper_hex
  2518: ffff80000007f7a0   457 FUNC    GLOBAL DEFAULT    2 _RNvXse_NtNtCs3i3vE8eoeEl_4core3fmt3numhNtB7_8LowerHex3fmt
  2519: ffff80000008a890   100 FUNC    GLOBAL DEFAULT    2 _RNvXNtNtNtCs3i3vE8eoeEl_4core3fmt3num3imphNtB6_7Display3fmt
  2520: ffff80000008aa30   100 FUNC    GLOBAL DEFAULT    2 _RNvXs3_NtNtNtCs3i3vE8eoeEl_4core3fmt3num3imptNtB9_7Display3fmt
  2521: ffff80000007f970   457 FUNC    GLOBAL DEFAULT    2 _RNvXsu_NtNtCs3i3vE8eoeEl_4core3fmt3nummNtB7_8LowerHex3fmt
  2522: ffff80000008aaa0   101 FUNC    GLOBAL DEFAULT    2 _RNvXs8_NtNtNtCs3i3vE8eoeEl_4core3fmt3num3impmNtB9_7Display3fmt
  2523: ffff80000007fb40   457 FUNC    GLOBAL DEFAULT    2 _RNvXsw_NtNtCs3i3vE8eoeEl_4core3fmt3nummNtB7_8UpperHex3fmt
  2524: ffff80000008ab30   100 FUNC    GLOBAL DEFAULT    2 _RNvXsd_NtNtNtCs3i3vE8eoeEl_4core3fmt3num3impyNtB9_7Display3fmt
  2525: ffff80000008aba0   100 FUNC    GLOBAL DEFAULT    2 _RNvXsi_NtNtNtCs3i3vE8eoeEl_4core3fmt3num3impjNtB9_7Display3fmt
  2526: ffff80000007fd10   559 FUNC    GLOBAL DEFAULT    2 _RINvNtCs3i3vE8eoeEl_4core3ptr12align_offsethEB4_
  2527: ffff80000007ff40    24 FUNC    GLOBAL DEFAULT    2 _RINvNtCs3i3vE8eoeEl_4core3ptr20slice_from_raw_partsAjj4_EB4_
  2528: ffff8000000816e0    21 FUNC    GLOBAL DEFAULT    2 _RINvNtNtCs3i3vE8eoeEl_4core3ptr8metadata8metadataShEB6_
  2529: ffff8000000815e0    24 FUNC    GLOBAL DEFAULT    2 _RINvNtNtCs3i3vE8eoeEl_4core3ptr8metadata14from_raw_partsSAjj4_BT_EB6_
  2530: ffff800000081600    24 FUNC    GLOBAL DEFAULT    2 _RINvNtNtCs3i3vE8eoeEl_4core3ptr8metadata14from_raw_partsShhEB6_
  2531: ffff80000007ff80    24 FUNC    GLOBAL DEFAULT    2 _RINvNtCs3i3vE8eoeEl_4core3ptr20slice_from_raw_partsjEB4_
  2532: ffff800000081620    24 FUNC    GLOBAL DEFAULT    2 _RINvNtNtCs3i3vE8eoeEl_4core3ptr8metadata14from_raw_partsSjjEB6_
  2533: ffff80000007ffa0    24 FUNC    GLOBAL DEFAULT    2 _RINvNtCs3i3vE8eoeEl_4core3ptr24slice_from_raw_parts_muthEB4_
  2534: ffff800000081660    24 FUNC    GLOBAL DEFAULT    2 _RINvNtNtCs3i3vE8eoeEl_4core3ptr8metadata18from_raw_parts_mutShhEB6_
  2535: ffff80000007ffc0    75 FUNC    GLOBAL DEFAULT    2 _RINvNtCs3i3vE8eoeEl_4core3ptr4readAhj2_EB4_
  2536: ffff800000080010    72 FUNC    GLOBAL DEFAULT    2 _RINvNtCs3i3vE8eoeEl_4core3ptr4readAhj4_EB4_
  2537: ffff800000080060    62 FUNC    GLOBAL DEFAULT    2 _RINvNtCs3i3vE8eoeEl_4core3ptr4readhEB4_
  2538: ffff8000000800a0    63 FUNC    GLOBAL DEFAULT    2 _RINvNtCs3i3vE8eoeEl_4core3ptr4readjEB4_
  2539: ffff800000081910    69 FUNC    GLOBAL DEFAULT    2 _RNvMs_NtCs3i3vE8eoeEl_4core3fmtNtB4_17FormattingOptions13get_precision
  2540: ffff800000086390    11 FUNC    GLOBAL DEFAULT    2 _RNvXsK_NtCs3i3vE8eoeEl_4core6optionINtB5_6OptionmEINtNtNtB7_3ops9try_trait12FromResidualIBy_NtNtB7_7convert10InfallibleEE13from_residualB7_
  2541: ffff800000085cd0    65 FUNC    GLOBAL DEFAULT    2 _RNvMNtCs3i3vE8eoeEl_4core6optionINtB2_6OptionRhE16unwrap_uncheckedB4_
  2542: ffff800000080280    88 FUNC    GLOBAL DEFAULT    2 _RINvNtNtCs3i3vE8eoeEl_4core5slice3raw14from_raw_partsAjj4_EB6_
  2543: ffff800000080340    86 FUNC    GLOBAL DEFAULT    2 _RINvNtNtCs3i3vE8eoeEl_4core5slice3raw14from_raw_partsjEB6_
  2544: ffff800000080400    24 FUNC    GLOBAL DEFAULT    2 _RNvMNtNtCs3i3vE8eoeEl_4core3ptr7mut_ptrOh20offset_from_unsignedB6_
  2545: ffff8000000804f0   150 FUNC    GLOBAL DEFAULT    2 _RNvMNtNtCs3i3vE8eoeEl_4core3ptr9const_ptrPh20offset_from_unsignedB6_
  2546: ffff800000080420   197 FUNC    GLOBAL DEFAULT    2 _RNvMNtNtCs3i3vE8eoeEl_4core3ptr9const_ptrPh12align_offsetB6_
  2547: ffff8000000805a0    12 FUNC    GLOBAL DEFAULT    2 _RNvMNtNtCs3i3vE8eoeEl_4core3ptr9const_ptrPj4readB6_
  2548: ffff80000008dd90    45 FUNC    GLOBAL DEFAULT    2 _RINvMNtCs3i3vE8eoeEl_4core5sliceSNtNtNtB5_7unicode12unicode_data20ShortOffsetRunHeader3getjEB5_
  2549: ffff800000081240    51 FUNC    GLOBAL DEFAULT    2 _RNvXs3_NtNtCs3i3vE8eoeEl_4core5slice3cmphINtB5_14SlicePartialEqhE17equal_same_lengthB9_
  2550: ffff80000008c6b5    80 FUNC    GLOBAL DEFAULT    2 _RINvNtCs3i3vE8eoeEl_4core9panicking13assert_failedjjEB4_
  2551: ffff8000000813a0    24 FUNC    GLOBAL DEFAULT    2 _RINvMs2_NtCs3i3vE8eoeEl_4core3fmtNtB6_9Arguments3newKj2a_Kj4_EB8_
  2552: ffff800000081440    24 FUNC    GLOBAL DEFAULT    2 _RINvMs2_NtCs3i3vE8eoeEl_4core3fmtNtB6_9Arguments3newKj37_Kj3_EB8_
  2553: ffff800000081480    24 FUNC    GLOBAL DEFAULT    2 _RINvMs2_NtCs3i3vE8eoeEl_4core3fmtNtB6_9Arguments3newKj3b_Kj4_EB8_
  2554: ffff8000000814c0    24 FUNC    GLOBAL DEFAULT    2 _RINvMs2_NtCs3i3vE8eoeEl_4core3fmtNtB6_9Arguments3newKj4f_Kj5_EB8_
  2555: ffff8000000814e0    24 FUNC    GLOBAL DEFAULT    2 _RINvMs2_NtCs3i3vE8eoeEl_4core3fmtNtB6_9Arguments3newKj51_Kj5_EB8_
  2556: ffff800000081500    24 FUNC    GLOBAL DEFAULT    2 _RINvMs2_NtCs3i3vE8eoeEl_4core3fmtNtB6_9Arguments3newKj53_Kj2_EB8_
  2557: ffff800000081520    24 FUNC    GLOBAL DEFAULT    2 _RINvMs2_NtCs3i3vE8eoeEl_4core3fmtNtB6_9Arguments3newKj58_Kj2_EB8_
  2558: ffff800000081540    24 FUNC    GLOBAL DEFAULT    2 _RINvMs2_NtCs3i3vE8eoeEl_4core3fmtNtB6_9Arguments3newKj6_Kj2_EB8_
  2559: ffff800000081640    24 FUNC    GLOBAL DEFAULT    2 _RINvNtNtCs3i3vE8eoeEl_4core3ptr8metadata14from_raw_partsehEB6_
  2560: ffff8000000816c0    21 FUNC    GLOBAL DEFAULT    2 _RINvNtNtCs3i3vE8eoeEl_4core3ptr8metadata8metadataSNtNtNtB6_7unicode12unicode_data20ShortOffsetRunHeaderEB6_
  2561: ffff800000081700    51 FUNC    GLOBAL DEFAULT    2 _RNvMs1_NtCs3i3vE8eoeEl_4core3fmtNtB5_9Formatter3new
  2562: ffff800000081960    28 FUNC    GLOBAL DEFAULT    2 _RNvMs_NtCs3i3vE8eoeEl_4core3fmtNtB4_17FormattingOptions3new
  2563: ffff800000081980    32 FUNC    GLOBAL DEFAULT    2 _RNvMs_NtCs3i3vE8eoeEl_4core3fmtNtB4_17FormattingOptions4fill
  2564: ffff8000000819a0   139 FUNC    GLOBAL DEFAULT    2 _RNvMs_NtCs3i3vE8eoeEl_4core3fmtNtB4_17FormattingOptions5align
  2565: ffff800000081a30    20 FUNC    GLOBAL DEFAULT    2 _RNvMs_NtCs3i3vE8eoeEl_4core3fmtNtB4_17FormattingOptions8get_fill
  2566: ffff800000081a50    82 FUNC    GLOBAL DEFAULT    2 _RNvMs_NtCs3i3vE8eoeEl_4core3fmtNtB4_17FormattingOptions9get_align
  2567: ffff8000000826a0    23 FUNC    GLOBAL DEFAULT    2 _RNvMsa_NtCs3i3vE8eoeEl_4core3fmtNtB5_9Formatter9alternate
  2568: ffff800000082070    23 FUNC    GLOBAL DEFAULT    2 _RNvMsa_NtCs3i3vE8eoeEl_4core3fmtNtB5_9Formatter19sign_aware_zero_pad
  2569: ffff80000008b980    91 FUNC    GLOBAL DEFAULT    2 _RNvXsp_NtCs3i3vE8eoeEl_4core6resultINtB5_6ResultNtNtB7_3fmt11PostPaddingNtBM_5ErrorENtNtNtB7_3ops9try_trait3Try6branchB7_
  2570: ffff8000000833b0    45 FUNC    GLOBAL DEFAULT    2 _RNvXs2_NtNtCs3i3vE8eoeEl_4core3str6traitseINtNtNtB9_3ops5index5IndexINtNtBJ_5range7RangeTojEE5indexB9_
  2571: ffff800000082190   913 FUNC    GLOBAL DEFAULT    2 _RNvMsa_NtCs3i3vE8eoeEl_4core3fmtNtB5_9Formatter3pad
  2572: ffff80000008b2d0    10 FUNC    GLOBAL DEFAULT    2 _RNvMse_NtNtCs3i3vE8eoeEl_4core3num7nonzeroINtB5_7NonZerojE3getB9_
  2573: ffff8000000837e0    45 FUNC    GLOBAL DEFAULT    2 _RINvMNtCs3i3vE8eoeEl_4core3stre13get_uncheckedINtNtNtB5_3ops5range7RangeTojEEB5_
  2574: ffff800000085b20    99 FUNC    GLOBAL DEFAULT    2 _RNvMNtCs3i3vE8eoeEl_4core6optionINtB2_6OptionNtNtB4_3fmt9AlignmentE9unwrap_orB4_
  2575: ffff80000008ba20    14 FUNC    GLOBAL DEFAULT    2 _RNvXsq_NtCs3i3vE8eoeEl_4core6resultINtB5_6ResultNtNtB7_3fmt11PostPaddingNtBM_5ErrorEINtNtNtB7_3ops9try_trait12FromResidualIBy_NtNtB7_7convert10InfallibleB18_EE13from_residualB7_
  2576: ffff800000086000    31 FUNC    GLOBAL DEFAULT    2 _RNvMs1_NtNtCs3i3vE8eoeEl_4core3ptr8non_nullINtB5_7NonNullhE4readB9_
  2577: ffff800000085820    12 FUNC    GLOBAL DEFAULT    2 _RINvMs0_NtNtCs3i3vE8eoeEl_4core3ptr8non_nullINtB6_7NonNullhE10cast_arrayKj2_EBa_
  2578: ffff800000085e50    51 FUNC    GLOBAL DEFAULT    2 _RNvMs1_NtNtCs3i3vE8eoeEl_4core3ptr8non_nullINtB5_7NonNullAhj2_E4readB9_
  2579: ffff800000085830    12 FUNC    GLOBAL DEFAULT    2 _RINvMs0_NtNtCs3i3vE8eoeEl_4core3ptr8non_nullINtB6_7NonNullhE10cast_arrayKj4_EBa_
  2580: ffff800000085e90    47 FUNC    GLOBAL DEFAULT    2 _RNvMs1_NtNtCs3i3vE8eoeEl_4core3ptr8non_nullINtB5_7NonNullAhj4_E4readB9_
  2581: ffff800000085de0    63 FUNC    GLOBAL DEFAULT    2 _RNvMNtCs3i3vE8eoeEl_4core6optionINtB2_6OptiontE16unwrap_uncheckedB4_
  2582: ffff800000083270    22 FUNC    GLOBAL DEFAULT    2 _RNvXs1_NtCs3i3vE8eoeEl_4core7converthINtB5_4IntojE4intoB7_
  2583: ffff800000083290    34 FUNC    GLOBAL DEFAULT    2 _RNvXs1g_NtCs3i3vE8eoeEl_4core3fmtRDNtB6_5DebugEL_Bx_3fmtB8_
  2584: ffff8000000832c0    29 FUNC    GLOBAL DEFAULT    2 _RNvXs1g_NtCs3i3vE8eoeEl_4core3fmtRjNtB6_5Debug3fmtB8_
  2585: ffff8000000832e0    29 FUNC    GLOBAL DEFAULT    2 _RNvXs1g_NtCs3i3vE8eoeEl_4core3fmtRmNtB6_5Debug3fmtB8_
  2586: ffff800000083340    39 FUNC    GLOBAL DEFAULT    2 _RNvXs1i_NtCs3i3vE8eoeEl_4core3fmtReNtB6_7Display3fmtB8_
  2587: ffff800000083370    60 FUNC    GLOBAL DEFAULT    2 _RNvXs2_NtNtCs3i3vE8eoeEl_4core3str6traitseINtNtNtB9_3ops5index5IndexINtNtBJ_5range5RangejEE5indexB9_
  2588: ffff800000083420    12 FUNC    GLOBAL DEFAULT    2 _RNvXs4_NtCs3i3vE8eoeEl_4core7convertlINtB5_7TryIntohE8try_intoB7_
  2589: ffff800000083430    12 FUNC    GLOBAL DEFAULT    2 _RNvXs4_NtCs3i3vE8eoeEl_4core7convertlINtB5_7TryIntojE8try_intoB7_
  2590: ffff800000083440    12 FUNC    GLOBAL DEFAULT    2 _RNvXs4_NtCs3i3vE8eoeEl_4core7convertlINtB5_7TryIntomE8try_intoB7_
  2591: ffff800000083450    12 FUNC    GLOBAL DEFAULT    2 _RNvXs4_NtCs3i3vE8eoeEl_4core7convertlINtB5_7TryIntotE8try_intoB7_
  2592: ffff800000083460    12 FUNC    GLOBAL DEFAULT    2 _RNvXs4_NtCs3i3vE8eoeEl_4core7convertlINtB5_7TryIntoyE8try_intoB7_
  2593: ffff800000083470    43 FUNC    GLOBAL DEFAULT    2 _RNvXs8_NtCs3i3vE8eoeEl_4core3fmtNtB5_9ArgumentsNtB5_7Display3fmt
  2594: ffff8000000836c0   139 FUNC    GLOBAL DEFAULT    2 _RNvXsk_NtCs3i3vE8eoeEl_4core3fmtcNtB5_7Display3fmt
  2595: ffff800000083810   196 FUNC    GLOBAL DEFAULT    2 _RINvMNtCs3i3vE8eoeEl_4core3stre15split_inclusivecEB5_
  2596: ffff8000000838e0    44 FUNC    GLOBAL DEFAULT    2 _RINvMNtCs3i3vE8eoeEl_4core3stre9ends_withcEB5_
  2597: ffff800000083eb0  2541 FUNC    GLOBAL DEFAULT    2 _RNvNtCs3i3vE8eoeEl_4core3str19slice_error_fail_rt
  2598: ffff80000008e810   107 FUNC    GLOBAL DEFAULT    2 _RINvMNtNtCs3i3vE8eoeEl_4core3fmt2rtNtB3_8Argument9new_debugINtNtNtB7_3ops5range5RangejEEB7_
  2599: ffff800000085d20    94 FUNC    GLOBAL DEFAULT    2 _RNvMNtCs3i3vE8eoeEl_4core6optionINtB2_6OptionjE9unwrap_orB4_
  2600: ffff800000085550    17 FUNC    GLOBAL DEFAULT    2 _RNvXsb_NtCs3i3vE8eoeEl_4core5arrayRAjj4_NtNtNtNtB7_4iter6traits7collect12IntoIterator9into_iterB7_
  2601: ffff8000000856e0   102 FUNC    GLOBAL DEFAULT    2 _RINvMNtCs3i3vE8eoeEl_4core6optionINtB3_6OptionRhE3maphNvYhNtNtB5_5clone5Clone5cloneEB5_
  2602: ffff800000085750   112 FUNC    GLOBAL DEFAULT    2 _RINvMNtCs3i3vE8eoeEl_4core6optionINtB3_6OptionjE3mapmNCINvNtNtB5_7unicode12unicode_data11skip_searchKj21_Kj2ff_Es_0EB5_
  2603: ffff800000085980    21 FUNC    GLOBAL DEFAULT    2 _RINvMs1_NtNtCs3i3vE8eoeEl_4core3ptr8non_nullINtB6_7NonNullhE4castAhj2_EBa_
  2604: ffff8000000859a0    21 FUNC    GLOBAL DEFAULT    2 _RINvMs1_NtNtCs3i3vE8eoeEl_4core3ptr8non_nullINtB6_7NonNullhE4castAhj4_EBa_
  2605: ffff800000085840    21 FUNC    GLOBAL DEFAULT    2 _RINvMs1_NtNtCs3i3vE8eoeEl_4core3ptr8non_nullINtB6_7NonNullINtNtNtBa_3ops5range5RangejEE4castuEBa_
  2606: ffff800000085860    21 FUNC    GLOBAL DEFAULT    2 _RINvMs1_NtNtCs3i3vE8eoeEl_4core3ptr8non_nullINtB6_7NonNullNtNtBa_3fmt9ArgumentsE4castuEBa_
  2607: ffff800000085880    21 FUNC    GLOBAL DEFAULT    2 _RINvMs1_NtNtCs3i3vE8eoeEl_4core3ptr8non_nullINtB6_7NonNullRDNtNtBa_3fmt5DebugEL_E4castuEBa_
  2608: ffff8000000858a0    21 FUNC    GLOBAL DEFAULT    2 _RINvMs1_NtNtCs3i3vE8eoeEl_4core3ptr8non_nullINtB6_7NonNullReE4castuEBa_
  2609: ffff800000085960    21 FUNC    GLOBAL DEFAULT    2 _RINvMs1_NtNtCs3i3vE8eoeEl_4core3ptr8non_nullINtB6_7NonNullcE4castuEBa_
  2610: ffff8000000859c0    21 FUNC    GLOBAL DEFAULT    2 _RINvMs1_NtNtCs3i3vE8eoeEl_4core3ptr8non_nullINtB6_7NonNullhE4castuEBa_
  2611: ffff8000000859e0    21 FUNC    GLOBAL DEFAULT    2 _RINvMs1_NtNtCs3i3vE8eoeEl_4core3ptr8non_nullINtB6_7NonNulljE4castuEBa_
  2612: ffff800000085a00    21 FUNC    GLOBAL DEFAULT    2 _RINvMs1_NtNtCs3i3vE8eoeEl_4core3ptr8non_nullINtB6_7NonNullmE4castuEBa_
  2613: ffff800000085a20    21 FUNC    GLOBAL DEFAULT    2 _RINvMs1_NtNtCs3i3vE8eoeEl_4core3ptr8non_nullINtB6_7NonNulltE4castuEBa_
  2614: ffff800000085a60     1 FUNC    GLOBAL DEFAULT    2 _RINvNtNtNtCs3i3vE8eoeEl_4core4iter8adapters3map8map_foldRhjjNCINvNvXs1_NtB4_6filterINtB17_6FilterppENtNtNtB6_6traits8iterator8Iterator5count8to_usizeBS_NCNvNtNtB8_3str5count23char_count_general_case0E0NCINvXsK_NtB1E_5accumjNtB3m_3Sum3sumINtB2_3MapINtNtNtB8_5slice4iter4IterhEBW_EE0EB8_
  2615: ffff800000085ab0    24 FUNC    GLOBAL DEFAULT    2 _RINvYINtNtNtNtCs3i3vE8eoeEl_4core4iter8adapters3map3MapINtNtNtBc_5slice4iter4IterhENCINvNvXs1_NtB8_6filterINtB1u_6FilterppENtNtNtBa_6traits8iterator8Iterator5count8to_usizeRhNCNvNtNtBc_3str5count23char_count_general_case0E0EB1X_3sumjEBc_
  2616: ffff80000008b560    34 FUNC    GLOBAL DEFAULT    2 _RNCINvNvXs1_NtNtNtCs3i3vE8eoeEl_4core4iter8adapters6filterINtBa_6FilterppENtNtNtBe_6traits8iterator8Iterator5count8to_usizeRhNCNvNtNtBg_3str5count23char_count_general_case0E0Bg_
  2617: ffff800000085b90    74 FUNC    GLOBAL DEFAULT    2 _RNvMNtCs3i3vE8eoeEl_4core6optionINtB2_6OptionNtNtNtB4_3fmt8builders10PadAdapterE6as_mutB4_
  2618: ffff800000085be0    86 FUNC    GLOBAL DEFAULT    2 _RNvMNtCs3i3vE8eoeEl_4core6optionINtB2_6OptionNtNtNtB4_3fmt8builders10PadAdapterE6insertB4_
  2619: ffff800000085c40    65 FUNC    GLOBAL DEFAULT    2 _RNvMNtCs3i3vE8eoeEl_4core6optionINtB2_6OptionQNtNtNtB4_3fmt8builders10PadAdapterE16unwrap_uncheckedB4_
  2620: ffff800000085ec0    10 FUNC    GLOBAL DEFAULT    2 _RNvMs1_NtNtCs3i3vE8eoeEl_4core3ptr8non_nullINtB5_7NonNullINtNtNtB9_3ops5range5RangejEE8from_refB9_
  2621: ffff800000085ed0    10 FUNC    GLOBAL DEFAULT    2 _RNvMs1_NtNtCs3i3vE8eoeEl_4core3ptr8non_nullINtB5_7NonNullNtNtB9_3fmt9ArgumentsE8from_refB9_
  2622: ffff800000085ee0    10 FUNC    GLOBAL DEFAULT    2 _RNvMs1_NtNtCs3i3vE8eoeEl_4core3ptr8non_nullINtB5_7NonNullRDNtNtB9_3fmt5DebugEL_E8from_refB9_
  2623: ffff800000085ef0    10 FUNC    GLOBAL DEFAULT    2 _RNvMs1_NtNtCs3i3vE8eoeEl_4core3ptr8non_nullINtB5_7NonNullReE8from_refB9_
  2624: ffff800000085fc0    10 FUNC    GLOBAL DEFAULT    2 _RNvMs1_NtNtCs3i3vE8eoeEl_4core3ptr8non_nullINtB5_7NonNullcE8from_refB9_
  2625: ffff800000086020    10 FUNC    GLOBAL DEFAULT    2 _RNvMs1_NtNtCs3i3vE8eoeEl_4core3ptr8non_nullINtB5_7NonNullhE8from_refB9_
  2626: ffff800000086030    10 FUNC    GLOBAL DEFAULT    2 _RNvMs1_NtNtCs3i3vE8eoeEl_4core3ptr8non_nullINtB5_7NonNulljE8from_refB9_
  2627: ffff800000086040    10 FUNC    GLOBAL DEFAULT    2 _RNvMs1_NtNtCs3i3vE8eoeEl_4core3ptr8non_nullINtB5_7NonNullmE8from_refB9_
  2628: ffff800000086050    10 FUNC    GLOBAL DEFAULT    2 _RNvMs1_NtNtCs3i3vE8eoeEl_4core3ptr8non_nullINtB5_7NonNulltE8from_refB9_
  2629: ffff8000000871b0    67 FUNC    GLOBAL DEFAULT    2 _RNvMs0_NtNtNtCs3i3vE8eoeEl_4core3fmt3num3imph4__fmt
  2630: ffff80000008b760   103 FUNC    GLOBAL DEFAULT    2 _RNvMNtCs3i3vE8eoeEl_4core6resultINtB2_6ResulttNtNtNtB4_3num5error15TryFromIntErrorE6expectB4_
  2631: ffff800000087f50    68 FUNC    GLOBAL DEFAULT    2 _RNvMs5_NtNtNtCs3i3vE8eoeEl_4core3fmt3num3impt4__fmt
  2632: ffff80000008b1a0   115 FUNC    GLOBAL DEFAULT    2 _RNvMNtCs3i3vE8eoeEl_4core6escapeINtB2_15EscapeIterInnerKja_NtB2_12MaybeEscapedE7unicodeB4_
  2633: ffff80000008b220   119 FUNC    GLOBAL DEFAULT    2 _RNvMNtCs3i3vE8eoeEl_4core6escapeINtB2_15EscapeIterInnerKja_NtB2_12MaybeEscapedE9backslashB4_
  2634: ffff80000008b2a0    41 FUNC    GLOBAL DEFAULT    2 _RNvMs0_NtCs3i3vE8eoeEl_4core6escapeINtB5_15EscapeIterInnerKja_NtB5_12MaybeEscapedE9printableB7_
  2635: ffff80000008b700    94 FUNC    GLOBAL DEFAULT    2 _RNvMNtCs3i3vE8eoeEl_4core6resultINtB2_6ResultmNtNtNtB4_3num5error15TryFromIntErrorE6expectB4_
  2636: ffff800000088d70    61 FUNC    GLOBAL DEFAULT    2 _RNvMsa_NtNtNtCs3i3vE8eoeEl_4core3fmt3num3impm4__fmt
  2637: ffff80000008b7d0    95 FUNC    GLOBAL DEFAULT    2 _RNvMNtCs3i3vE8eoeEl_4core6resultINtB2_6ResultyNtNtNtB4_3num5error15TryFromIntErrorE6expectB4_
  2638: ffff800000089ae0    62 FUNC    GLOBAL DEFAULT    2 _RNvMsf_NtNtNtCs3i3vE8eoeEl_4core3fmt3num3impy4__fmt
  2639: ffff80000008b6a0    95 FUNC    GLOBAL DEFAULT    2 _RNvMNtCs3i3vE8eoeEl_4core6resultINtB2_6ResultjNtNtNtB4_3num5error15TryFromIntErrorE6expectB4_
  2640: ffff80000008a850    62 FUNC    GLOBAL DEFAULT    2 _RNvMsk_NtNtNtCs3i3vE8eoeEl_4core3fmt3num3impj4__fmt
  2641: ffff80000008b2f0   126 FUNC    GLOBAL DEFAULT    2 _RNvXs2_NtCs3i3vE8eoeEl_4core6escapeINtB5_15EscapeIterInnerKja_NtB5_12MaybeEscapedENtNtB7_3fmt7Display3fmtB7_
  2642: ffff80000008b000   115 FUNC    GLOBAL DEFAULT    2 _RINvNtCs3i3vE8eoeEl_4core6escape9backslashKja_EB4_
  2643: ffff80000008ac10  1006 FUNC    GLOBAL DEFAULT    2 _RINvNtCs3i3vE8eoeEl_4core6escape14escape_unicodeKja_EB4_
  2644: ffff80000008b080   104 FUNC    GLOBAL DEFAULT    2 _RNvMNtCs3i3vE8eoeEl_4core6escapeINtB2_15EscapeIterInnerKja_NtB2_12MaybeEscapedE16to_str_uncheckedB4_
  2645: ffff80000008b0f0   113 FUNC    GLOBAL DEFAULT    2 _RNvMNtCs3i3vE8eoeEl_4core6escapeINtB2_15EscapeIterInnerKja_NtB2_12MaybeEscapedE3newB4_
  2646: ffff80000008b170    48 FUNC    GLOBAL DEFAULT    2 _RNvMNtCs3i3vE8eoeEl_4core6escapeINtB2_15EscapeIterInnerKja_NtB2_12MaybeEscapedE7to_charB4_
  2647: ffff80000008b370   113 FUNC    GLOBAL DEFAULT    2 _RINvMNtCs3i3vE8eoeEl_4core6resultINtB3_6ResultuNtNtB5_3fmt5ErrorE8and_thenuNCINvMs1_NtBL_8buildersNtB1k_11DebugStruct10field_withNCNvB1g_5field0E0EB5_
  2648: ffff80000008b3f0   124 FUNC    GLOBAL DEFAULT    2 _RINvMNtCs3i3vE8eoeEl_4core6resultINtB3_6ResultuNtNtB5_3fmt5ErrorE8and_thenuNCINvMs2_NtBL_8buildersNtB1k_10DebugTuple10field_withNCNvB1g_5field0E0EB5_
  2649: ffff80000008b470    98 FUNC    GLOBAL DEFAULT    2 _RINvMNtCs3i3vE8eoeEl_4core6resultINtB3_6ResultuNtNtB5_3fmt5ErrorE8and_thenuNCNvMs1_NtBL_8buildersNtB1j_11DebugStruct6finish0EB5_
  2650: ffff80000008b4e0    98 FUNC    GLOBAL DEFAULT    2 _RINvMNtCs3i3vE8eoeEl_4core6resultINtB3_6ResultuNtNtB5_3fmt5ErrorE8and_thenuNCNvMs2_NtBL_8buildersNtB1j_10DebugTuple6finish0EB5_
  2651: ffff80000008c760   758 FUNC    GLOBAL DEFAULT    2 _RNCINvMs1_NtNtCs3i3vE8eoeEl_4core3fmt8buildersNtB8_11DebugStruct10field_withNCNvB4_5field0E0Bc_
  2652: ffff80000008ca60   495 FUNC    GLOBAL DEFAULT    2 _RNCINvMs2_NtNtCs3i3vE8eoeEl_4core3fmt8buildersNtB8_10DebugTuple10field_withNCNvB4_5field0E0Bc_
  2653: ffff80000008b550     1 FUNC    GLOBAL DEFAULT    2 _RINvNvXs1_NtNtNtCs3i3vE8eoeEl_4core4iter8adapters6filterINtB8_6FilterppENtNtNtBc_6traits8iterator8Iterator5count8to_usizeRhNCNvNtNtBe_3str5count23char_count_general_case0EBe_
  2654: ffff80000008b5f0    57 FUNC    GLOBAL DEFAULT    2 _RNvMNtCs3i3vE8eoeEl_4core6resultINtB2_6ResultcNtNtNtB4_4char7convert16CharTryFromErrorE5is_okB4_
  2655: ffff80000008e880   107 FUNC    GLOBAL DEFAULT    2 _RINvMNtNtCs3i3vE8eoeEl_4core3fmt2rtNtB3_8Argument9new_debugRDNtB5_5DebugEL_EB7_
  2656: ffff80000008b8f0   143 FUNC    GLOBAL DEFAULT    2 _RNvXs1_NtNtNtCs3i3vE8eoeEl_4core4iter8adapters6filterINtB5_6FilterINtNtNtBb_5slice4iter4IterhENCNvNtNtBb_3str5count23char_count_general_case0ENtNtNtB9_6traits8iterator8Iterator5countBb_
  2657: ffff80000008bb60  1362 FUNC    GLOBAL DEFAULT    2 _RNvNtNtCs3i3vE8eoeEl_4core3str5count14do_count_chars
  2658: ffff80000008c190    46 FUNC    GLOBAL DEFAULT    2 _RNvNtNtCs3i3vE8eoeEl_4core3str5count23char_count_general_case
  2659: ffff80000008df00   590 FUNC    GLOBAL DEFAULT    2 _RINvMNtCs3i3vE8eoeEl_4core5sliceSh8align_tojEB5_
  2660: ffff80000008f0b0   121 FUNC    GLOBAL DEFAULT    2 _RNvMNtCs3i3vE8eoeEl_4core5sliceSj6chunksB4_
  2661: ffff80000008e1d0   250 FUNC    GLOBAL DEFAULT    2 _RINvMNtCs3i3vE8eoeEl_4core5sliceSj9as_chunksKj4_EB5_
  2662: ffff80000008c1f0   899 FUNC    GLOBAL DEFAULT    2 _RNvNtNtNtCs3i3vE8eoeEl_4core7unicode12unicode_data15grapheme_extend11lookup_slow
  2663: ffff80000008dd60    37 FUNC    GLOBAL DEFAULT    2 _RINvMNtCs3i3vE8eoeEl_4core5sliceSNtNtNtB5_7unicode12unicode_data20ShortOffsetRunHeader20binary_search_by_keymNCINvBx_11skip_searchKj21_Kj2ff_E0EB5_
  2664: ffff80000008ec00   259 FUNC    GLOBAL DEFAULT    2 _RNvMNtCs3i3vE8eoeEl_4core5sliceSh18split_at_uncheckedB4_
  2665: ffff80000008c5d0    97 FUNC    GLOBAL DEFAULT    2 _RINvMs1_NtNtCs3i3vE8eoeEl_4core3fmt8buildersNtB6_11DebugStruct10field_withNCNvB2_5field0EBa_
  2666: ffff80000008c640   117 FUNC    GLOBAL DEFAULT    2 _RINvMs2_NtNtCs3i3vE8eoeEl_4core3fmt8buildersNtB6_10DebugTuple10field_withNCNvB2_5field0EBa_
  2667: ffff80000008ce80    17 FUNC    GLOBAL DEFAULT    2 _RNvMs1_NtNtCs3i3vE8eoeEl_4core3fmt8buildersNtB5_11DebugStruct9is_pretty
  2668: ffff80000008d630     5 FUNC    GLOBAL DEFAULT    2 _RNvXNtNtCs3i3vE8eoeEl_4core3fmt8buildersNtB2_15PadAdapterStateNtNtB6_7default7Default7default
  2669: ffff80000008cf30    42 FUNC    GLOBAL DEFAULT    2 _RNvMs_NtNtCs3i3vE8eoeEl_4core3fmt8buildersNtB4_10PadAdapter4wrap
  2670: ffff80000008cf10    18 FUNC    GLOBAL DEFAULT    2 _RNvMs2_NtNtCs3i3vE8eoeEl_4core3fmt8buildersNtB5_10DebugTuple9is_pretty
  2671: ffff80000008e2d0   107 FUNC    GLOBAL DEFAULT    2 _RINvMNtNtCs3i3vE8eoeEl_4core3fmt2rtNtB3_8Argument11new_displayNtB5_9ArgumentsEB7_
  2672: ffff80000008e6c0   107 FUNC    GLOBAL DEFAULT    2 _RINvMNtNtCs3i3vE8eoeEl_4core3fmt2rtNtB3_8Argument13new_lower_hexjEB7_
  2673: ffff80000008d640   153 FUNC    GLOBAL DEFAULT    2 _RNvXs0_NtNtCs3i3vE8eoeEl_4core3fmt8buildersNtB5_10PadAdapterNtB7_5Write10write_char
  2674: ffff80000008d6e0   412 FUNC    GLOBAL DEFAULT    2 _RNvXs0_NtNtCs3i3vE8eoeEl_4core3fmt8buildersNtB5_10PadAdapterNtB7_5Write9write_str
  2675: ffff80000008d880   151 FUNC    GLOBAL DEFAULT    2 _RNvXs_NvNtNtCs3i3vE8eoeEl_4core3fmt5Write9write_fmtQNtNtB8_8builders10PadAdapterNtB4_12SpecWriteFmt14spec_write_fmtBa_
  2676: ffff80000008d920    30 FUNC    GLOBAL DEFAULT    2 _RNvYNtNtNtCs3i3vE8eoeEl_4core3fmt8builders10PadAdapterNtB6_5Write9write_fmtB8_
  2677: ffff80000008d940    45 FUNC    GLOBAL DEFAULT    2 _RINvMNtCs3i3vE8eoeEl_4core5sliceSNtNtNtB5_7unicode12unicode_data20ShortOffsetRunHeader13get_uncheckedjEB5_
  2678: ffff80000008d970  1008 FUNC    GLOBAL DEFAULT    2 _RINvMNtCs3i3vE8eoeEl_4core5sliceSNtNtNtB5_7unicode12unicode_data20ShortOffsetRunHeader16binary_search_byNCINvB2_20binary_search_by_keymNCINvBx_11skip_searchKj21_Kj2ff_E0E0EB5_
  2679: ffff80000008ea40    55 FUNC    GLOBAL DEFAULT    2 _RNCINvMNtCs3i3vE8eoeEl_4core5sliceSNtNtNtB7_7unicode12unicode_data20ShortOffsetRunHeader20binary_search_by_keymNCINvBz_11skip_searchKj21_Kj2ff_E0E0B7_
  2680: ffff80000008ddf0   193 FUNC    GLOBAL DEFAULT    2 _RINvMNtCs3i3vE8eoeEl_4core5sliceSh16align_to_offsetsjEB5_
  2681: ffff80000008ed70   155 FUNC    GLOBAL DEFAULT    2 _RNvMNtCs3i3vE8eoeEl_4core5sliceSh8split_atB4_
  2682: ffff80000008e150   122 FUNC    GLOBAL DEFAULT    2 _RINvMNtCs3i3vE8eoeEl_4core5sliceSj19as_chunks_uncheckedKj4_EB5_
  2683: ffff80000008ef80   266 FUNC    GLOBAL DEFAULT    2 _RNvMNtCs3i3vE8eoeEl_4core5sliceSj18split_at_uncheckedB4_
  2684: ffff80000008e960   213 FUNC    GLOBAL DEFAULT    2 _RINvNtCs3i3vE8eoeEl_4core5slice20copy_from_slice_implhEB4_
  2685: ffff80000008eb60   145 FUNC    GLOBAL DEFAULT    2 _RNvMNtCs3i3vE8eoeEl_4core5sliceSh16split_at_checkedB4_
  2686: ffff80000008fcc0    49 FUNC    GLOBAL DEFAULT    2 _RNvXs0_NtNtCs3i3vE8eoeEl_4core5slice10specializeShINtB5_8SpecFillhE9spec_fill
  2687: ffff80000008eee0   145 FUNC    GLOBAL DEFAULT    2 _RNvMNtCs3i3vE8eoeEl_4core5sliceSj16split_at_checkedB4_
  2688: ffff80000009185f     0 NOTYPE  GLOBAL DEFAULT    2 memset_word
  2689: ffff8000000918de     0 NOTYPE  GLOBAL DEFAULT    2 popcount
  2690: ffff8000000004e4     0 NOTYPE  GLOBAL DEFAULT    1 _bootstrap_kentry
  2691: ffff8000000919e1     0 NOTYPE  GLOBAL DEFAULT    2 current_tick0
